ARM GAS  /tmp/ccD6FYWN.s 			page 1


   1              		.cpu cortex-m7
   2              		.arch armv7e-m
   3              		.fpu fpv5-d16
   4              		.eabi_attribute 28, 1
   5              		.eabi_attribute 20, 1
   6              		.eabi_attribute 21, 1
   7              		.eabi_attribute 23, 3
   8              		.eabi_attribute 24, 1
   9              		.eabi_attribute 25, 1
  10              		.eabi_attribute 26, 1
  11              		.eabi_attribute 30, 2
  12              		.eabi_attribute 34, 1
  13              		.eabi_attribute 18, 4
  14              		.file	"run.cpp"
  15              		.text
  16              	.Ltext0:
  17              		.cfi_sections	.debug_frame
  18              		.file 1 "run.cpp"
  19              		.section	.text._ZN5daisy9DaisySeedD2Ev,"axG",%progbits,_ZN5daisy9DaisySeedD5Ev,comdat
  20              		.align	1
  21              		.p2align 2,,3
  22              		.weak	_ZN5daisy9DaisySeedD2Ev
  23              		.syntax unified
  24              		.thumb
  25              		.thumb_func
  27              	_ZN5daisy9DaisySeedD2Ev:
  28              	.LVL0:
  29              	.LFB2344:
  30              		.file 2 "../../DaisyExamples/libDaisy//src/daisy_seed.h"
   1:../../DaisyExamples/libDaisy//src/daisy_seed.h **** #pragma once
   2:../../DaisyExamples/libDaisy//src/daisy_seed.h **** #ifndef DSY_SEED_H
   3:../../DaisyExamples/libDaisy//src/daisy_seed.h **** #define DSY_SEED_H
   4:../../DaisyExamples/libDaisy//src/daisy_seed.h **** 
   5:../../DaisyExamples/libDaisy//src/daisy_seed.h **** #include "daisy.h"
   6:../../DaisyExamples/libDaisy//src/daisy_seed.h **** 
   7:../../DaisyExamples/libDaisy//src/daisy_seed.h **** //Uncomment this out if you're still using the rev2 hardware
   8:../../DaisyExamples/libDaisy//src/daisy_seed.h **** //#define SEED_REV2
   9:../../DaisyExamples/libDaisy//src/daisy_seed.h **** 
  10:../../DaisyExamples/libDaisy//src/daisy_seed.h **** namespace daisy
  11:../../DaisyExamples/libDaisy//src/daisy_seed.h **** {
  12:../../DaisyExamples/libDaisy//src/daisy_seed.h **** /**
  13:../../DaisyExamples/libDaisy//src/daisy_seed.h ****    @brief This is the higher-level interface for the Daisy board. \n 
  14:../../DaisyExamples/libDaisy//src/daisy_seed.h ****     All basic peripheral configuration/initialization is setup here. \n
  15:../../DaisyExamples/libDaisy//src/daisy_seed.h **** 
  16:../../DaisyExamples/libDaisy//src/daisy_seed.h ****    @ingroup boards
  17:../../DaisyExamples/libDaisy//src/daisy_seed.h **** */
  18:../../DaisyExamples/libDaisy//src/daisy_seed.h **** class DaisySeed
  19:../../DaisyExamples/libDaisy//src/daisy_seed.h **** {
  20:../../DaisyExamples/libDaisy//src/daisy_seed.h ****   public:
  21:../../DaisyExamples/libDaisy//src/daisy_seed.h ****     DaisySeed() {}
  22:../../DaisyExamples/libDaisy//src/daisy_seed.h ****     ~DaisySeed() {}
  31              		.loc 2 22 5 view -0
  32              		.cfi_startproc
  33              		@ args = 0, pretend = 0, frame = 0
  34              		@ frame_needed = 0, uses_anonymous_args = 0
  35              		@ link register save eliminated.
  36              	.LBB54:
ARM GAS  /tmp/ccD6FYWN.s 			page 2


  37              	.LBI54:
  38              		.file 3 "../../DaisyExamples/libDaisy//src/sys/system.h"
   1:../../DaisyExamples/libDaisy//src/sys/system.h **** #ifndef DSY_SYSTEM_H
   2:../../DaisyExamples/libDaisy//src/sys/system.h **** #define DSY_SYSTEM_H
   3:../../DaisyExamples/libDaisy//src/sys/system.h **** 
   4:../../DaisyExamples/libDaisy//src/sys/system.h **** #ifndef UNIT_TEST // for unit tests, a dummy implementation is provided below
   5:../../DaisyExamples/libDaisy//src/sys/system.h **** 
   6:../../DaisyExamples/libDaisy//src/sys/system.h **** #include <cstdint>
   7:../../DaisyExamples/libDaisy//src/sys/system.h **** #include "per/tim.h"
   8:../../DaisyExamples/libDaisy//src/sys/system.h **** 
   9:../../DaisyExamples/libDaisy//src/sys/system.h **** namespace daisy
  10:../../DaisyExamples/libDaisy//src/sys/system.h **** {
  11:../../DaisyExamples/libDaisy//src/sys/system.h **** /** A handle for interacting with the Core System. 
  12:../../DaisyExamples/libDaisy//src/sys/system.h ****  ** This includes the Clock tree, MPU, global DMA initialization,
  13:../../DaisyExamples/libDaisy//src/sys/system.h ****  ** cache handling, and any other necessary global initiailzation
  14:../../DaisyExamples/libDaisy//src/sys/system.h ****  **
  15:../../DaisyExamples/libDaisy//src/sys/system.h ****  ** @author shensley
  16:../../DaisyExamples/libDaisy//src/sys/system.h ****  ** @ingroup system
  17:../../DaisyExamples/libDaisy//src/sys/system.h ****  */
  18:../../DaisyExamples/libDaisy//src/sys/system.h **** class System
  19:../../DaisyExamples/libDaisy//src/sys/system.h **** {
  20:../../DaisyExamples/libDaisy//src/sys/system.h ****   public:
  21:../../DaisyExamples/libDaisy//src/sys/system.h ****     /** Contains settings for initializing the System */
  22:../../DaisyExamples/libDaisy//src/sys/system.h ****     struct Config
  23:../../DaisyExamples/libDaisy//src/sys/system.h ****     {
  24:../../DaisyExamples/libDaisy//src/sys/system.h ****         /** Specifies the system clock frequency that feeds APB/AHB clocks, etc. */
  25:../../DaisyExamples/libDaisy//src/sys/system.h ****         enum class SysClkFreq
  26:../../DaisyExamples/libDaisy//src/sys/system.h ****         {
  27:../../DaisyExamples/libDaisy//src/sys/system.h ****             FREQ_400MHZ,
  28:../../DaisyExamples/libDaisy//src/sys/system.h ****             FREQ_480MHZ,
  29:../../DaisyExamples/libDaisy//src/sys/system.h ****         };
  30:../../DaisyExamples/libDaisy//src/sys/system.h **** 
  31:../../DaisyExamples/libDaisy//src/sys/system.h ****         /** Method to call on the struct to set to defaults
  32:../../DaisyExamples/libDaisy//src/sys/system.h ****          ** CPU Freq set to 400MHz
  33:../../DaisyExamples/libDaisy//src/sys/system.h ****          ** Cache Enabled 
  34:../../DaisyExamples/libDaisy//src/sys/system.h ****          ** */
  35:../../DaisyExamples/libDaisy//src/sys/system.h ****         void Defaults()
  36:../../DaisyExamples/libDaisy//src/sys/system.h ****         {
  37:../../DaisyExamples/libDaisy//src/sys/system.h ****             cpu_freq    = SysClkFreq::FREQ_400MHZ;
  38:../../DaisyExamples/libDaisy//src/sys/system.h ****             use_dcache  = true;
  39:../../DaisyExamples/libDaisy//src/sys/system.h ****             use_icache  = true;
  40:../../DaisyExamples/libDaisy//src/sys/system.h ****             skip_clocks = false;
  41:../../DaisyExamples/libDaisy//src/sys/system.h ****         }
  42:../../DaisyExamples/libDaisy//src/sys/system.h **** 
  43:../../DaisyExamples/libDaisy//src/sys/system.h ****         /** Method to call on the struct to set to boost mode:
  44:../../DaisyExamples/libDaisy//src/sys/system.h ****          ** CPU Freq set to 480MHz
  45:../../DaisyExamples/libDaisy//src/sys/system.h ****          ** Cache Enabled 
  46:../../DaisyExamples/libDaisy//src/sys/system.h ****          ** */
  47:../../DaisyExamples/libDaisy//src/sys/system.h ****         void Boost()
  48:../../DaisyExamples/libDaisy//src/sys/system.h ****         {
  49:../../DaisyExamples/libDaisy//src/sys/system.h ****             cpu_freq    = SysClkFreq::FREQ_480MHZ;
  50:../../DaisyExamples/libDaisy//src/sys/system.h ****             use_dcache  = true;
  51:../../DaisyExamples/libDaisy//src/sys/system.h ****             use_icache  = true;
  52:../../DaisyExamples/libDaisy//src/sys/system.h ****             skip_clocks = false;
  53:../../DaisyExamples/libDaisy//src/sys/system.h ****         }
  54:../../DaisyExamples/libDaisy//src/sys/system.h **** 
  55:../../DaisyExamples/libDaisy//src/sys/system.h ****         SysClkFreq cpu_freq;
ARM GAS  /tmp/ccD6FYWN.s 			page 3


  56:../../DaisyExamples/libDaisy//src/sys/system.h ****         bool       use_dcache;
  57:../../DaisyExamples/libDaisy//src/sys/system.h ****         bool       use_icache;
  58:../../DaisyExamples/libDaisy//src/sys/system.h ****         bool       skip_clocks;
  59:../../DaisyExamples/libDaisy//src/sys/system.h ****     };
  60:../../DaisyExamples/libDaisy//src/sys/system.h **** 
  61:../../DaisyExamples/libDaisy//src/sys/system.h ****     /** Describes the different regions of memory available to the Daisy
  62:../../DaisyExamples/libDaisy//src/sys/system.h ****      * 
  63:../../DaisyExamples/libDaisy//src/sys/system.h ****      */
  64:../../DaisyExamples/libDaisy//src/sys/system.h ****     enum MemoryRegion
  65:../../DaisyExamples/libDaisy//src/sys/system.h ****     {
  66:../../DaisyExamples/libDaisy//src/sys/system.h ****         INTERNAL_FLASH = 0,
  67:../../DaisyExamples/libDaisy//src/sys/system.h ****         ITCMRAM,
  68:../../DaisyExamples/libDaisy//src/sys/system.h ****         DTCMRAM,
  69:../../DaisyExamples/libDaisy//src/sys/system.h ****         SRAM_D1,
  70:../../DaisyExamples/libDaisy//src/sys/system.h ****         SRAM_D2,
  71:../../DaisyExamples/libDaisy//src/sys/system.h ****         SRAM_D3,
  72:../../DaisyExamples/libDaisy//src/sys/system.h ****         SDRAM,
  73:../../DaisyExamples/libDaisy//src/sys/system.h ****         QSPI,
  74:../../DaisyExamples/libDaisy//src/sys/system.h ****         INVALID_ADDRESS,
  75:../../DaisyExamples/libDaisy//src/sys/system.h ****     };
  76:../../DaisyExamples/libDaisy//src/sys/system.h **** 
  77:../../DaisyExamples/libDaisy//src/sys/system.h ****     System() {}
  78:../../DaisyExamples/libDaisy//src/sys/system.h ****     ~System() {}
  39              		.loc 3 78 5 view .LVU1
  40              		.loc 3 78 5 is_stmt 0 view .LVU2
  41              	.LBE54:
  42              	.LBB55:
  43              	.LBI55:
  44              		.file 4 "../../DaisyExamples/libDaisy//src/hid/usb.h"
   1:../../DaisyExamples/libDaisy//src/hid/usb.h **** #pragma once
   2:../../DaisyExamples/libDaisy//src/hid/usb.h **** #ifndef DSY_HID_USB_H
   3:../../DaisyExamples/libDaisy//src/hid/usb.h **** #define DSY_HID_USB_H
   4:../../DaisyExamples/libDaisy//src/hid/usb.h **** #include <stdint.h>
   5:../../DaisyExamples/libDaisy//src/hid/usb.h **** #include <stdlib.h>
   6:../../DaisyExamples/libDaisy//src/hid/usb.h **** 
   7:../../DaisyExamples/libDaisy//src/hid/usb.h **** namespace daisy
   8:../../DaisyExamples/libDaisy//src/hid/usb.h **** /** @addtogroup human_interface
   9:../../DaisyExamples/libDaisy//src/hid/usb.h ****     @{
  10:../../DaisyExamples/libDaisy//src/hid/usb.h **** */
  11:../../DaisyExamples/libDaisy//src/hid/usb.h **** 
  12:../../DaisyExamples/libDaisy//src/hid/usb.h **** {
  13:../../DaisyExamples/libDaisy//src/hid/usb.h **** /** 
  14:../../DaisyExamples/libDaisy//src/hid/usb.h ****     @brief Interface for initializing and using the USB Peripherals on the daisy
  15:../../DaisyExamples/libDaisy//src/hid/usb.h ****     @author Stephen Hensley
  16:../../DaisyExamples/libDaisy//src/hid/usb.h ****     @date December 2019
  17:../../DaisyExamples/libDaisy//src/hid/usb.h **** */
  18:../../DaisyExamples/libDaisy//src/hid/usb.h **** class UsbHandle
  19:../../DaisyExamples/libDaisy//src/hid/usb.h **** {
  20:../../DaisyExamples/libDaisy//src/hid/usb.h ****   public:
  21:../../DaisyExamples/libDaisy//src/hid/usb.h ****     /** Return values for USBHandle Functions */
  22:../../DaisyExamples/libDaisy//src/hid/usb.h ****     enum class Result
  23:../../DaisyExamples/libDaisy//src/hid/usb.h ****     {
  24:../../DaisyExamples/libDaisy//src/hid/usb.h ****         OK,
  25:../../DaisyExamples/libDaisy//src/hid/usb.h ****         ERR,
  26:../../DaisyExamples/libDaisy//src/hid/usb.h ****     };
  27:../../DaisyExamples/libDaisy//src/hid/usb.h **** 
  28:../../DaisyExamples/libDaisy//src/hid/usb.h ****     /** Specified which of the two USB Peripherals to initialize. */
ARM GAS  /tmp/ccD6FYWN.s 			page 4


  29:../../DaisyExamples/libDaisy//src/hid/usb.h ****     enum UsbPeriph
  30:../../DaisyExamples/libDaisy//src/hid/usb.h ****     {
  31:../../DaisyExamples/libDaisy//src/hid/usb.h ****         FS_INTERNAL, /**< Internal pin */
  32:../../DaisyExamples/libDaisy//src/hid/usb.h ****         FS_EXTERNAL, /**< FS External D+ pin is Pin 38 (GPIO32). FS External D- pin is Pin 37 (GPIO
  33:../../DaisyExamples/libDaisy//src/hid/usb.h ****         FS_BOTH,     /**< Both */
  34:../../DaisyExamples/libDaisy//src/hid/usb.h ****     };
  35:../../DaisyExamples/libDaisy//src/hid/usb.h **** 
  36:../../DaisyExamples/libDaisy//src/hid/usb.h **** 
  37:../../DaisyExamples/libDaisy//src/hid/usb.h ****     /** Function called upon reception of a buffer */
  38:../../DaisyExamples/libDaisy//src/hid/usb.h ****     typedef void (*ReceiveCallback)(uint8_t* buff, uint32_t* len);
  39:../../DaisyExamples/libDaisy//src/hid/usb.h **** 
  40:../../DaisyExamples/libDaisy//src/hid/usb.h ****     UsbHandle() {}
  41:../../DaisyExamples/libDaisy//src/hid/usb.h **** 
  42:../../DaisyExamples/libDaisy//src/hid/usb.h ****     ~UsbHandle() {}
  45              		.loc 4 42 5 is_stmt 1 view .LVU3
  46              		.loc 4 42 5 is_stmt 0 view .LVU4
  47              	.LBE55:
  48              	.LBB56:
  49              	.LBI56:
  50              		.file 5 "../../DaisyExamples/libDaisy//src/per/adc.h"
   1:../../DaisyExamples/libDaisy//src/per/adc.h **** #pragma once
   2:../../DaisyExamples/libDaisy//src/per/adc.h **** #ifndef DSY_ADC_H
   3:../../DaisyExamples/libDaisy//src/per/adc.h **** #define DSY_ADC_H /**< Macro */
   4:../../DaisyExamples/libDaisy//src/per/adc.h **** #include <stdint.h>
   5:../../DaisyExamples/libDaisy//src/per/adc.h **** #include <stdlib.h>
   6:../../DaisyExamples/libDaisy//src/per/adc.h **** #include "daisy_core.h"
   7:../../DaisyExamples/libDaisy//src/per/adc.h **** #include "per/gpio.h"
   8:../../DaisyExamples/libDaisy//src/per/adc.h **** 
   9:../../DaisyExamples/libDaisy//src/per/adc.h **** #define DSY_ADC_MAX_CHANNELS 16 /**< Maximum number of ADC channels */
  10:../../DaisyExamples/libDaisy//src/per/adc.h **** 
  11:../../DaisyExamples/libDaisy//src/per/adc.h **** namespace daisy
  12:../../DaisyExamples/libDaisy//src/per/adc.h **** {
  13:../../DaisyExamples/libDaisy//src/per/adc.h **** /** @addtogroup per_analog
  14:../../DaisyExamples/libDaisy//src/per/adc.h ****     @{
  15:../../DaisyExamples/libDaisy//src/per/adc.h **** */
  16:../../DaisyExamples/libDaisy//src/per/adc.h **** 
  17:../../DaisyExamples/libDaisy//src/per/adc.h **** /* While there may not be many configuration options here,
  18:../../DaisyExamples/libDaisy//src/per/adc.h **** using a struct like this allows us to add more configuration
  19:../../DaisyExamples/libDaisy//src/per/adc.h **** later without breaking existing functionality.
  20:../../DaisyExamples/libDaisy//src/per/adc.h **** */
  21:../../DaisyExamples/libDaisy//src/per/adc.h **** 
  22:../../DaisyExamples/libDaisy//src/per/adc.h **** /** @brief   Configuration Structure for an ADC Channel 
  23:../../DaisyExamples/libDaisy//src/per/adc.h ****  *  @details This can be used to configure a a single input, 
  24:../../DaisyExamples/libDaisy//src/per/adc.h ****  *           or a multiplexed input, allowing up to 8 inputs on 
  25:../../DaisyExamples/libDaisy//src/per/adc.h ****  *           one channel.
  26:../../DaisyExamples/libDaisy//src/per/adc.h ****  *  @note    Sharing data lines to multiple muxes _is_ possible, but
  27:../../DaisyExamples/libDaisy//src/per/adc.h ****  *           each channel sharing data lines must be set to the maximum
  28:../../DaisyExamples/libDaisy//src/per/adc.h ****  *           number of channels, even if some multiplexers have fewer
  29:../../DaisyExamples/libDaisy//src/per/adc.h ****  *           inputs connected.
  30:../../DaisyExamples/libDaisy//src/per/adc.h **** */
  31:../../DaisyExamples/libDaisy//src/per/adc.h **** struct AdcChannelConfig
  32:../../DaisyExamples/libDaisy//src/per/adc.h **** {
  33:../../DaisyExamples/libDaisy//src/per/adc.h ****     /** Which pin to use for multiplexing */
  34:../../DaisyExamples/libDaisy//src/per/adc.h ****     enum MuxPin
  35:../../DaisyExamples/libDaisy//src/per/adc.h ****     {
  36:../../DaisyExamples/libDaisy//src/per/adc.h ****         MUX_SEL_0,    /**< & */
  37:../../DaisyExamples/libDaisy//src/per/adc.h ****         MUX_SEL_1,    /**< & */
ARM GAS  /tmp/ccD6FYWN.s 			page 5


  38:../../DaisyExamples/libDaisy//src/per/adc.h ****         MUX_SEL_2,    /**< & */
  39:../../DaisyExamples/libDaisy//src/per/adc.h ****         MUX_SEL_LAST, /**< & */
  40:../../DaisyExamples/libDaisy//src/per/adc.h ****     };
  41:../../DaisyExamples/libDaisy//src/per/adc.h **** 
  42:../../DaisyExamples/libDaisy//src/per/adc.h ****     /** Initializes a single ADC pin as an ADC. 
  43:../../DaisyExamples/libDaisy//src/per/adc.h ****     \param pin Pin to init.
  44:../../DaisyExamples/libDaisy//src/per/adc.h ****      */
  45:../../DaisyExamples/libDaisy//src/per/adc.h ****     void InitSingle(dsy_gpio_pin pin);
  46:../../DaisyExamples/libDaisy//src/per/adc.h **** 
  47:../../DaisyExamples/libDaisy//src/per/adc.h ****     /** 
  48:../../DaisyExamples/libDaisy//src/per/adc.h ****     Initializes a single ADC pin as a Multiplexed ADC.
  49:../../DaisyExamples/libDaisy//src/per/adc.h ****     Requires a CD405X Multiplexer connected to the pin.
  50:../../DaisyExamples/libDaisy//src/per/adc.h ****     You only need to supply the mux pins that are required,
  51:../../DaisyExamples/libDaisy//src/per/adc.h ****     e.g. a 4052 mux would only require mux_0 and mux_1.
  52:../../DaisyExamples/libDaisy//src/per/adc.h ****     Internal Callbacks handle the pin addressing.
  53:../../DaisyExamples/libDaisy//src/per/adc.h ****     \param mux_channels must be 1-8
  54:../../DaisyExamples/libDaisy//src/per/adc.h ****     \param mux_0 First mux pin
  55:../../DaisyExamples/libDaisy//src/per/adc.h ****     \param mux_1 Second mux pin
  56:../../DaisyExamples/libDaisy//src/per/adc.h ****     \param mux_2 Third mux pin
  57:../../DaisyExamples/libDaisy//src/per/adc.h ****     \param adc_pin &
  58:../../DaisyExamples/libDaisy//src/per/adc.h ****     */
  59:../../DaisyExamples/libDaisy//src/per/adc.h ****     void InitMux(dsy_gpio_pin adc_pin,
  60:../../DaisyExamples/libDaisy//src/per/adc.h ****                  size_t       mux_channels,
  61:../../DaisyExamples/libDaisy//src/per/adc.h ****                  dsy_gpio_pin mux_0,
  62:../../DaisyExamples/libDaisy//src/per/adc.h ****                  dsy_gpio_pin mux_1 = {DSY_GPIOX, 0},
  63:../../DaisyExamples/libDaisy//src/per/adc.h ****                  dsy_gpio_pin mux_2 = {DSY_GPIOX, 0});
  64:../../DaisyExamples/libDaisy//src/per/adc.h **** 
  65:../../DaisyExamples/libDaisy//src/per/adc.h ****     dsy_gpio pin_;                   /**< & */
  66:../../DaisyExamples/libDaisy//src/per/adc.h ****     dsy_gpio mux_pin_[MUX_SEL_LAST]; /**< & */
  67:../../DaisyExamples/libDaisy//src/per/adc.h ****     uint8_t  mux_channels_;          /**< & */
  68:../../DaisyExamples/libDaisy//src/per/adc.h **** };
  69:../../DaisyExamples/libDaisy//src/per/adc.h **** 
  70:../../DaisyExamples/libDaisy//src/per/adc.h **** /**
  71:../../DaisyExamples/libDaisy//src/per/adc.h ****    @brief Handler for analog to digital conversion
  72:../../DaisyExamples/libDaisy//src/per/adc.h **** */
  73:../../DaisyExamples/libDaisy//src/per/adc.h **** class AdcHandle
  74:../../DaisyExamples/libDaisy//src/per/adc.h **** {
  75:../../DaisyExamples/libDaisy//src/per/adc.h ****   public:
  76:../../DaisyExamples/libDaisy//src/per/adc.h ****     /** Supported oversampling amounts */
  77:../../DaisyExamples/libDaisy//src/per/adc.h ****     enum OverSampling
  78:../../DaisyExamples/libDaisy//src/per/adc.h ****     {
  79:../../DaisyExamples/libDaisy//src/per/adc.h ****         OVS_NONE, /**< & */
  80:../../DaisyExamples/libDaisy//src/per/adc.h ****         OVS_4,    /**< & */
  81:../../DaisyExamples/libDaisy//src/per/adc.h ****         OVS_8,    /**< & */
  82:../../DaisyExamples/libDaisy//src/per/adc.h ****         OVS_16,   /**< & */
  83:../../DaisyExamples/libDaisy//src/per/adc.h ****         OVS_32,   /**< & */
  84:../../DaisyExamples/libDaisy//src/per/adc.h ****         OVS_64,   /**< & */
  85:../../DaisyExamples/libDaisy//src/per/adc.h ****         OVS_128,  /**< & */
  86:../../DaisyExamples/libDaisy//src/per/adc.h ****         OVS_256,  /**< & */
  87:../../DaisyExamples/libDaisy//src/per/adc.h ****         OVS_512,  /**< & */
  88:../../DaisyExamples/libDaisy//src/per/adc.h ****         OVS_1024, /**< & */
  89:../../DaisyExamples/libDaisy//src/per/adc.h ****         OVS_LAST, /**< & */
  90:../../DaisyExamples/libDaisy//src/per/adc.h ****     };
  91:../../DaisyExamples/libDaisy//src/per/adc.h **** 
  92:../../DaisyExamples/libDaisy//src/per/adc.h ****     AdcHandle() {}
  93:../../DaisyExamples/libDaisy//src/per/adc.h ****     ~AdcHandle() {}
  51              		.loc 5 93 5 is_stmt 1 view .LVU5
ARM GAS  /tmp/ccD6FYWN.s 			page 6


  52              		.loc 5 93 5 is_stmt 0 view .LVU6
  53              	.LBE56:
  54              	.LBB57:
  55              	.LBI57:
  56              		.file 6 "../../DaisyExamples/libDaisy//src/hid/audio.h"
   1:../../DaisyExamples/libDaisy//src/hid/audio.h **** #ifndef DSY_AUDIO_H
   2:../../DaisyExamples/libDaisy//src/hid/audio.h **** #define DSY_AUDIO_H /**< & */
   3:../../DaisyExamples/libDaisy//src/hid/audio.h **** 
   4:../../DaisyExamples/libDaisy//src/hid/audio.h **** #include "per/sai.h"
   5:../../DaisyExamples/libDaisy//src/hid/audio.h **** 
   6:../../DaisyExamples/libDaisy//src/hid/audio.h **** namespace daisy
   7:../../DaisyExamples/libDaisy//src/hid/audio.h **** {
   8:../../DaisyExamples/libDaisy//src/hid/audio.h **** /** @brief Audio Engine Handle
   9:../../DaisyExamples/libDaisy//src/hid/audio.h ****  *  @ingroup audio 
  10:../../DaisyExamples/libDaisy//src/hid/audio.h ****  *  @details This class allows for higher level access to an audio engine.
  11:../../DaisyExamples/libDaisy//src/hid/audio.h ****  *           If you're using a SOM like the DaisySeed or DaisyPatchSM (or any 
  12:../../DaisyExamples/libDaisy//src/hid/audio.h ****  *            board that includes one of those objects) then the intialization
  13:../../DaisyExamples/libDaisy//src/hid/audio.h ****  *            is already taken  care of.
  14:../../DaisyExamples/libDaisy//src/hid/audio.h ****  *           If you're setting up your own custom hardware, or need to make changes
  15:../../DaisyExamples/libDaisy//src/hid/audio.h ****  *           you will have to take the following steps:
  16:../../DaisyExamples/libDaisy//src/hid/audio.h ****  *             1. Create and Initialize an SaiHandle or two depending on your requirements
  17:../../DaisyExamples/libDaisy//src/hid/audio.h ****  *             2. Initialize the Audio Handle with the desired settings and the Initialized SaiHand
  18:../../DaisyExamples/libDaisy//src/hid/audio.h ****  *             3. If the connected codec requires special configuration or initialization, do so
  19:../../DaisyExamples/libDaisy//src/hid/audio.h ****  *             4. Write a callback method using either the AudioCallback or the InterleavingAudioCa
  20:../../DaisyExamples/libDaisy//src/hid/audio.h ****  *             5. Start the Audio using one of the StartAudio function
  21:../../DaisyExamples/libDaisy//src/hid/audio.h ****  */
  22:../../DaisyExamples/libDaisy//src/hid/audio.h **** class AudioHandle
  23:../../DaisyExamples/libDaisy//src/hid/audio.h **** {
  24:../../DaisyExamples/libDaisy//src/hid/audio.h ****   public:
  25:../../DaisyExamples/libDaisy//src/hid/audio.h ****     /** Manually configurable details about the Audio Engine */
  26:../../DaisyExamples/libDaisy//src/hid/audio.h ****     /** TODO: Figure out how to get samplerate in here. */
  27:../../DaisyExamples/libDaisy//src/hid/audio.h ****     struct Config
  28:../../DaisyExamples/libDaisy//src/hid/audio.h ****     {
  29:../../DaisyExamples/libDaisy//src/hid/audio.h ****         /** number of samples to process per callback */
  30:../../DaisyExamples/libDaisy//src/hid/audio.h ****         size_t blocksize;
  31:../../DaisyExamples/libDaisy//src/hid/audio.h **** 
  32:../../DaisyExamples/libDaisy//src/hid/audio.h ****         /**< Sample rate of audio */
  33:../../DaisyExamples/libDaisy//src/hid/audio.h ****         SaiHandle::Config::SampleRate samplerate;
  34:../../DaisyExamples/libDaisy//src/hid/audio.h **** 
  35:../../DaisyExamples/libDaisy//src/hid/audio.h ****         /** factor for adjustment before and after callback for hardware that may have extra headro
  36:../../DaisyExamples/libDaisy//src/hid/audio.h ****         float postgain;
  37:../../DaisyExamples/libDaisy//src/hid/audio.h **** 
  38:../../DaisyExamples/libDaisy//src/hid/audio.h ****         /** factor for additional one-sided compensation to audio path for hardware that may
  39:../../DaisyExamples/libDaisy//src/hid/audio.h ****          *  have unequal input/output ranges
  40:../../DaisyExamples/libDaisy//src/hid/audio.h ****          */
  41:../../DaisyExamples/libDaisy//src/hid/audio.h ****         float output_compensation;
  42:../../DaisyExamples/libDaisy//src/hid/audio.h **** 
  43:../../DaisyExamples/libDaisy//src/hid/audio.h ****         /** Sets default values for config struct */
  44:../../DaisyExamples/libDaisy//src/hid/audio.h ****         Config()
  45:../../DaisyExamples/libDaisy//src/hid/audio.h ****         : blocksize(48),
  46:../../DaisyExamples/libDaisy//src/hid/audio.h ****           samplerate(SaiHandle::Config::SampleRate::SAI_48KHZ),
  47:../../DaisyExamples/libDaisy//src/hid/audio.h ****           postgain(1.f),
  48:../../DaisyExamples/libDaisy//src/hid/audio.h ****           output_compensation(1.f)
  49:../../DaisyExamples/libDaisy//src/hid/audio.h ****         {
  50:../../DaisyExamples/libDaisy//src/hid/audio.h ****         }
  51:../../DaisyExamples/libDaisy//src/hid/audio.h ****     };
  52:../../DaisyExamples/libDaisy//src/hid/audio.h **** 
ARM GAS  /tmp/ccD6FYWN.s 			page 7


  53:../../DaisyExamples/libDaisy//src/hid/audio.h ****     enum class Result
  54:../../DaisyExamples/libDaisy//src/hid/audio.h ****     {
  55:../../DaisyExamples/libDaisy//src/hid/audio.h ****         OK,
  56:../../DaisyExamples/libDaisy//src/hid/audio.h ****         ERR,
  57:../../DaisyExamples/libDaisy//src/hid/audio.h ****     };
  58:../../DaisyExamples/libDaisy//src/hid/audio.h **** 
  59:../../DaisyExamples/libDaisy//src/hid/audio.h ****     /** Non-Interleaving input buffer
  60:../../DaisyExamples/libDaisy//src/hid/audio.h ****      * Buffer arranged by float[chn][sample] 
  61:../../DaisyExamples/libDaisy//src/hid/audio.h ****      * const so that the user can't modify the input
  62:../../DaisyExamples/libDaisy//src/hid/audio.h ****      */
  63:../../DaisyExamples/libDaisy//src/hid/audio.h ****     typedef const float* const* InputBuffer;
  64:../../DaisyExamples/libDaisy//src/hid/audio.h **** 
  65:../../DaisyExamples/libDaisy//src/hid/audio.h ****     /** Non-Interleaving output buffer
  66:../../DaisyExamples/libDaisy//src/hid/audio.h ****      * Arranged by float[chn][sample] 
  67:../../DaisyExamples/libDaisy//src/hid/audio.h ****      */
  68:../../DaisyExamples/libDaisy//src/hid/audio.h ****     typedef float** OutputBuffer;
  69:../../DaisyExamples/libDaisy//src/hid/audio.h **** 
  70:../../DaisyExamples/libDaisy//src/hid/audio.h ****     /** Type for a Non-Interleaving audio callback 
  71:../../DaisyExamples/libDaisy//src/hid/audio.h ****      * Non-Interleaving audio callbacks in daisy will be of this type
  72:../../DaisyExamples/libDaisy//src/hid/audio.h ****      */
  73:../../DaisyExamples/libDaisy//src/hid/audio.h ****     typedef void (*AudioCallback)(InputBuffer  in,
  74:../../DaisyExamples/libDaisy//src/hid/audio.h ****                                   OutputBuffer out,
  75:../../DaisyExamples/libDaisy//src/hid/audio.h ****                                   size_t       size);
  76:../../DaisyExamples/libDaisy//src/hid/audio.h **** 
  77:../../DaisyExamples/libDaisy//src/hid/audio.h ****     /** Interleaving Input buffer
  78:../../DaisyExamples/libDaisy//src/hid/audio.h ****      ** audio is prepared as { L0, R0, L1, R1, . . . LN, RN }]
  79:../../DaisyExamples/libDaisy//src/hid/audio.h ****      ** this is const, as the user shouldn't modify it
  80:../../DaisyExamples/libDaisy//src/hid/audio.h ****     */
  81:../../DaisyExamples/libDaisy//src/hid/audio.h ****     typedef const float* InterleavingInputBuffer;
  82:../../DaisyExamples/libDaisy//src/hid/audio.h **** 
  83:../../DaisyExamples/libDaisy//src/hid/audio.h ****     /** Interleaving Output buffer 
  84:../../DaisyExamples/libDaisy//src/hid/audio.h ****      ** audio is prepared as { L0, R0, L1, R1, . . . LN, RN }
  85:../../DaisyExamples/libDaisy//src/hid/audio.h ****     */
  86:../../DaisyExamples/libDaisy//src/hid/audio.h ****     typedef float* InterleavingOutputBuffer;
  87:../../DaisyExamples/libDaisy//src/hid/audio.h **** 
  88:../../DaisyExamples/libDaisy//src/hid/audio.h ****     /** Interleaving Audio Callback 
  89:../../DaisyExamples/libDaisy//src/hid/audio.h ****      * Interleaving audio callbacks in daisy must be of this type
  90:../../DaisyExamples/libDaisy//src/hid/audio.h ****      */
  91:../../DaisyExamples/libDaisy//src/hid/audio.h ****     typedef void (*InterleavingAudioCallback)(InterleavingInputBuffer  in,
  92:../../DaisyExamples/libDaisy//src/hid/audio.h ****                                               InterleavingOutputBuffer out,
  93:../../DaisyExamples/libDaisy//src/hid/audio.h ****                                               size_t                   size);
  94:../../DaisyExamples/libDaisy//src/hid/audio.h **** 
  95:../../DaisyExamples/libDaisy//src/hid/audio.h ****     AudioHandle() : pimpl_(nullptr) {}
  96:../../DaisyExamples/libDaisy//src/hid/audio.h ****     ~AudioHandle() {}
  57              		.loc 6 96 5 is_stmt 1 view .LVU7
  58              		.loc 6 96 5 is_stmt 0 view .LVU8
  59              	.LBE57:
  60              		.loc 2 22 19 view .LVU9
  61 0000 7047     		bx	lr
  62              		.cfi_endproc
  63              	.LFE2344:
  65              		.weak	_ZN5daisy9DaisySeedD1Ev
  66              		.thumb_set _ZN5daisy9DaisySeedD1Ev,_ZN5daisy9DaisySeedD2Ev
  67 0002 00BF     		.section	.text._Z11store_valuet,"ax",%progbits
  68              		.align	1
  69              		.p2align 2,,3
  70              		.global	_Z11store_valuet
ARM GAS  /tmp/ccD6FYWN.s 			page 8


  71              		.syntax unified
  72              		.thumb
  73              		.thumb_func
  75              	_Z11store_valuet:
  76              	.LVL1:
  77              	.LFB4788:
   1:run.cpp       **** #include <pstl/glue_numeric_defs.h>
   2:run.cpp       **** 
   3:run.cpp       **** #include "daisy_seed.h"
   4:run.cpp       **** #include "daisysp.h"
   5:run.cpp       **** #include <string>
   6:run.cpp       **** 
   7:run.cpp       **** #define NUMBER_OF_VALUES 1024
   8:run.cpp       **** #define TEST_MEMORY_SIZE (NUMBER_OF_VALUES * 16)
   9:run.cpp       **** 
  10:run.cpp       **** using namespace daisy;
  11:run.cpp       **** using namespace daisysp;
  12:run.cpp       **** 
  13:run.cpp       **** DaisySeed hw;
  14:run.cpp       **** static size_t value_count = 0;
  15:run.cpp       **** // 16bit adc
  16:run.cpp       **** const float_t ADC_MAX = 0xFFFF;
  17:run.cpp       **** const float_t VEE = 3.3;
  18:run.cpp       **** const float_t R_1 = 1000;
  19:run.cpp       **** 
  20:run.cpp       **** void store_value(uint16_t value){
  78              		.loc 1 20 33 is_stmt 1 view -0
  79              		.cfi_startproc
  80              		@ args = 0, pretend = 0, frame = 0
  81              		@ frame_needed = 0, uses_anonymous_args = 0
  82              		@ link register save eliminated.
  21:run.cpp       **** 	int32_t *ram = (int32_t *)0xC0000000;
  83              		.loc 1 21 2 view .LVU11
  22:run.cpp       **** 	unsigned char const *p = reinterpret_cast<unsigned char const *>(&value);
  84              		.loc 1 22 2 view .LVU12
  23:run.cpp       **** 	memcpy((sizeof(uint16_t) * value_count) + ram, p, sizeof(uint16_t));
  85              		.loc 1 23 2 view .LVU13
  86              		.loc 1 23 42 is_stmt 0 view .LVU14
  87 0000 0449     		ldr	r1, .L4
  88 0002 0B68     		ldr	r3, [r1]
  89              		.loc 1 23 8 view .LVU15
  90 0004 DA00     		lsls	r2, r3, #3
  24:run.cpp       **** 	value_count++;
  91              		.loc 1 24 13 view .LVU16
  92 0006 0133     		adds	r3, r3, #1
  23:run.cpp       **** 	memcpy((sizeof(uint16_t) * value_count) + ram, p, sizeof(uint16_t));
  93              		.loc 1 23 8 view .LVU17
  94 0008 02F14042 		add	r2, r2, #-1073741824
  95              		.loc 1 24 13 view .LVU18
  96 000c 0B60     		str	r3, [r1]
  23:run.cpp       **** 	memcpy((sizeof(uint16_t) * value_count) + ram, p, sizeof(uint16_t));
  97              		.loc 1 23 8 view .LVU19
  98 000e 1080     		strh	r0, [r2]	@ movhi
  99              		.loc 1 24 2 is_stmt 1 view .LVU20
  25:run.cpp       **** }
 100              		.loc 1 25 1 is_stmt 0 view .LVU21
 101 0010 7047     		bx	lr
ARM GAS  /tmp/ccD6FYWN.s 			page 9


 102              	.L5:
 103 0012 00BF     		.align	2
 104              	.L4:
 105 0014 00000000 		.word	_ZL11value_count
 106              		.cfi_endproc
 107              	.LFE4788:
 109              		.section	.rodata._Z27calculate_voltages_and_tempv.str1.4,"aMS",%progbits,1
 110              		.align	2
 111              	.LC0:
 112 0000 2537643B 		.ascii	"%7d;%2.6f;%4.6f\000"
 112      25322E36 
 112      663B2534 
 112      2E366600 
 113              		.section	.text._Z27calculate_voltages_and_tempv,"ax",%progbits
 114              		.align	1
 115              		.p2align 2,,3
 116              		.global	_Z27calculate_voltages_and_tempv
 117              		.syntax unified
 118              		.thumb
 119              		.thumb_func
 121              	_Z27calculate_voltages_and_tempv:
 122              	.LFB4789:
  26:run.cpp       **** 
  27:run.cpp       **** void calculate_voltages_and_temp(){
 123              		.loc 1 27 35 is_stmt 1 view -0
 124              		.cfi_startproc
 125              		@ args = 0, pretend = 0, frame = 0
 126              		@ frame_needed = 0, uses_anonymous_args = 0
  28:run.cpp       **** 	int32_t *ram = (int32_t *)0xC0000000;
 127              		.loc 1 28 2 view .LVU23
 128              	.LVL2:
  29:run.cpp       **** 	for (size_t i = 1; i < value_count; i++)
 129              		.loc 1 29 2 view .LVU24
 130              	.LBB58:
 131              		.loc 1 29 23 discriminator 1 view .LVU25
 132              	.LBE58:
  27:run.cpp       **** 	int32_t *ram = (int32_t *)0xC0000000;
 133              		.loc 1 27 35 is_stmt 0 view .LVU26
 134 0000 70B5     		push	{r4, r5, r6, lr}
 135              		.cfi_def_cfa_offset 16
 136              		.cfi_offset 4, -16
 137              		.cfi_offset 5, -12
 138              		.cfi_offset 6, -8
 139              		.cfi_offset 14, -4
 140              	.LBB70:
 141              		.loc 1 29 23 discriminator 1 view .LVU27
 142 0002 184E     		ldr	r6, .L11
 143              	.LBE70:
  27:run.cpp       **** 	int32_t *ram = (int32_t *)0xC0000000;
 144              		.loc 1 27 35 view .LVU28
 145 0004 82B0     		sub	sp, sp, #8
 146              		.cfi_def_cfa_offset 24
 147              	.LBB71:
 148              		.loc 1 29 23 discriminator 1 view .LVU29
 149 0006 3368     		ldr	r3, [r6]
 150 0008 012B     		cmp	r3, #1
 151 000a 26D9     		bls	.L7
ARM GAS  /tmp/ccD6FYWN.s 			page 10


 152 000c 164D     		ldr	r5, .L11+4
 153              		.loc 1 29 14 view .LVU30
 154 000e 0124     		movs	r4, #1
 155              	.LVL3:
 156              	.L8:
 157              	.LBB59:
  30:run.cpp       **** 	{
  31:run.cpp       **** 		uint16_t result;
 158              		.loc 1 31 3 is_stmt 1 view .LVU31
  32:run.cpp       **** 		unsigned char const *p = (unsigned char const *)((sizeof(uint16_t) * i) + ram);
 159              		.loc 1 32 3 view .LVU32
  33:run.cpp       **** 		memcpy(&result, p, sizeof(uint16_t));
 160              		.loc 1 33 3 view .LVU33
  34:run.cpp       **** 		// Calculate Voltage
  35:run.cpp       **** 		float_t v =  VEE * (result / ADC_MAX);
 161              		.loc 1 35 3 view .LVU34
 162              		.loc 1 35 23 is_stmt 0 view .LVU35
 163 0010 35F8081B 		ldrh	r1, [r5], #8
 164              	.LVL4:
 165              		.loc 1 35 23 view .LVU36
 166              	.LBE59:
  29:run.cpp       **** 	{
 167              		.loc 1 29 2 discriminator 3 view .LVU37
 168 0014 0134     		adds	r4, r4, #1
 169              	.LVL5:
 170              	.LBB69:
 171              		.loc 1 35 30 view .LVU38
 172 0016 9FED156A 		vldr.32	s12, .L11+8
 173 001a 07EE101A 		vmov	s14, r1	@ int
 174              		.loc 1 35 11 view .LVU39
 175 001e DFED147A 		vldr.32	s15, .L11+12
  36:run.cpp       **** 		// Calculate Resistance
  37:run.cpp       **** 		float_t t = ((VEE - v) * R_1) / v;
 176              		.loc 1 37 26 view .LVU40
 177 0022 DFED146A 		vldr.32	s13, .L11+16
  35:run.cpp       **** 		// Calculate Resistance
 178              		.loc 1 35 30 view .LVU41
 179 0026 F8EEC75A 		vcvt.f32.s32	s11, s14
 180              	.LBB60:
 181              	.LBB61:
  23:../../DaisyExamples/libDaisy//src/daisy_seed.h **** 
  24:../../DaisyExamples/libDaisy//src/daisy_seed.h ****     /** This function used to provide a pre-initialization configuraiton 
  25:../../DaisyExamples/libDaisy//src/daisy_seed.h ****      *  it has since been deprecated, and does nothing.
  26:../../DaisyExamples/libDaisy//src/daisy_seed.h ****      */
  27:../../DaisyExamples/libDaisy//src/daisy_seed.h ****     void Configure();
  28:../../DaisyExamples/libDaisy//src/daisy_seed.h **** 
  29:../../DaisyExamples/libDaisy//src/daisy_seed.h ****     /** 
  30:../../DaisyExamples/libDaisy//src/daisy_seed.h ****     Initializes the Daisy Seed and the following peripherals:
  31:../../DaisyExamples/libDaisy//src/daisy_seed.h ****     SDRAM, QSPI, 24-bit 48kHz Audio via AK4556, Internal USB,
  32:../../DaisyExamples/libDaisy//src/daisy_seed.h ****     as well as the built-in LED and Testpoint.
  33:../../DaisyExamples/libDaisy//src/daisy_seed.h **** 
  34:../../DaisyExamples/libDaisy//src/daisy_seed.h ****     ADCs, DACs, and other special peripherals (such as I2C, SPI, etc.)
  35:../../DaisyExamples/libDaisy//src/daisy_seed.h ****     can be initialized using their specific initializers within libdaisy
  36:../../DaisyExamples/libDaisy//src/daisy_seed.h ****     for a specific application.
  37:../../DaisyExamples/libDaisy//src/daisy_seed.h ****     */
  38:../../DaisyExamples/libDaisy//src/daisy_seed.h ****     void Init(bool boost = false);
  39:../../DaisyExamples/libDaisy//src/daisy_seed.h **** 
ARM GAS  /tmp/ccD6FYWN.s 			page 11


  40:../../DaisyExamples/libDaisy//src/daisy_seed.h ****     /** 
  41:../../DaisyExamples/libDaisy//src/daisy_seed.h ****     Deinitializes all peripherals automatically handled by `Init`.
  42:../../DaisyExamples/libDaisy//src/daisy_seed.h ****     */
  43:../../DaisyExamples/libDaisy//src/daisy_seed.h ****     void DeInit();
  44:../../DaisyExamples/libDaisy//src/daisy_seed.h **** 
  45:../../DaisyExamples/libDaisy//src/daisy_seed.h ****     /** 
  46:../../DaisyExamples/libDaisy//src/daisy_seed.h ****     Wait some ms before going on.
  47:../../DaisyExamples/libDaisy//src/daisy_seed.h ****     \param del Delay time in ms.
  48:../../DaisyExamples/libDaisy//src/daisy_seed.h ****     */
  49:../../DaisyExamples/libDaisy//src/daisy_seed.h ****     void DelayMs(size_t del);
  50:../../DaisyExamples/libDaisy//src/daisy_seed.h **** 
  51:../../DaisyExamples/libDaisy//src/daisy_seed.h ****     /** 
  52:../../DaisyExamples/libDaisy//src/daisy_seed.h ****     Returns the gpio_pin corresponding to the index 0-31.
  53:../../DaisyExamples/libDaisy//src/daisy_seed.h ****     For the given GPIO on the Daisy Seed (labeled 1-32 in docs).
  54:../../DaisyExamples/libDaisy//src/daisy_seed.h ****     */
  55:../../DaisyExamples/libDaisy//src/daisy_seed.h ****     static dsy_gpio_pin GetPin(uint8_t pin_idx);
  56:../../DaisyExamples/libDaisy//src/daisy_seed.h **** 
  57:../../DaisyExamples/libDaisy//src/daisy_seed.h ****     /** Begins the audio for the seeds builtin audio.
  58:../../DaisyExamples/libDaisy//src/daisy_seed.h ****     the specified callback will get called whenever
  59:../../DaisyExamples/libDaisy//src/daisy_seed.h ****     new data is ready to be prepared.
  60:../../DaisyExamples/libDaisy//src/daisy_seed.h ****     */
  61:../../DaisyExamples/libDaisy//src/daisy_seed.h ****     void StartAudio(AudioHandle::InterleavingAudioCallback cb);
  62:../../DaisyExamples/libDaisy//src/daisy_seed.h **** 
  63:../../DaisyExamples/libDaisy//src/daisy_seed.h ****     /** Begins the audio for the seeds builtin audio.
  64:../../DaisyExamples/libDaisy//src/daisy_seed.h ****     the specified callback will get called whenever
  65:../../DaisyExamples/libDaisy//src/daisy_seed.h ****     new data is ready to be prepared.
  66:../../DaisyExamples/libDaisy//src/daisy_seed.h ****     This will use the newer non-interleaved callback.
  67:../../DaisyExamples/libDaisy//src/daisy_seed.h ****     */
  68:../../DaisyExamples/libDaisy//src/daisy_seed.h ****     void StartAudio(AudioHandle::AudioCallback cb);
  69:../../DaisyExamples/libDaisy//src/daisy_seed.h **** 
  70:../../DaisyExamples/libDaisy//src/daisy_seed.h ****     /** Changes to a new interleaved callback
  71:../../DaisyExamples/libDaisy//src/daisy_seed.h ****      */
  72:../../DaisyExamples/libDaisy//src/daisy_seed.h ****     void ChangeAudioCallback(AudioHandle::InterleavingAudioCallback cb);
  73:../../DaisyExamples/libDaisy//src/daisy_seed.h **** 
  74:../../DaisyExamples/libDaisy//src/daisy_seed.h ****     /** Changes to a new multichannel callback
  75:../../DaisyExamples/libDaisy//src/daisy_seed.h ****      */
  76:../../DaisyExamples/libDaisy//src/daisy_seed.h ****     void ChangeAudioCallback(AudioHandle::AudioCallback cb);
  77:../../DaisyExamples/libDaisy//src/daisy_seed.h **** 
  78:../../DaisyExamples/libDaisy//src/daisy_seed.h ****     /** Stops the audio if it is running. */
  79:../../DaisyExamples/libDaisy//src/daisy_seed.h ****     void StopAudio();
  80:../../DaisyExamples/libDaisy//src/daisy_seed.h **** 
  81:../../DaisyExamples/libDaisy//src/daisy_seed.h ****     /** Updates the Audio Sample Rate, and reinitializes.
  82:../../DaisyExamples/libDaisy//src/daisy_seed.h ****      ** Audio must be stopped for this to work.
  83:../../DaisyExamples/libDaisy//src/daisy_seed.h ****      */
  84:../../DaisyExamples/libDaisy//src/daisy_seed.h ****     void SetAudioSampleRate(SaiHandle::Config::SampleRate samplerate);
  85:../../DaisyExamples/libDaisy//src/daisy_seed.h **** 
  86:../../DaisyExamples/libDaisy//src/daisy_seed.h ****     /** Returns the audio sample rate in Hz as a floating point number.
  87:../../DaisyExamples/libDaisy//src/daisy_seed.h ****      */
  88:../../DaisyExamples/libDaisy//src/daisy_seed.h ****     float AudioSampleRate();
  89:../../DaisyExamples/libDaisy//src/daisy_seed.h **** 
  90:../../DaisyExamples/libDaisy//src/daisy_seed.h ****     /** Sets the number of samples processed per channel by the audio callback.
  91:../../DaisyExamples/libDaisy//src/daisy_seed.h ****      */
  92:../../DaisyExamples/libDaisy//src/daisy_seed.h ****     void SetAudioBlockSize(size_t blocksize);
  93:../../DaisyExamples/libDaisy//src/daisy_seed.h **** 
  94:../../DaisyExamples/libDaisy//src/daisy_seed.h ****     /** Returns the number of samples per channel in a block of audio. */
  95:../../DaisyExamples/libDaisy//src/daisy_seed.h ****     size_t AudioBlockSize();
  96:../../DaisyExamples/libDaisy//src/daisy_seed.h **** 
ARM GAS  /tmp/ccD6FYWN.s 			page 12


  97:../../DaisyExamples/libDaisy//src/daisy_seed.h ****     /** Returns the rate in Hz that the Audio callback is called */
  98:../../DaisyExamples/libDaisy//src/daisy_seed.h ****     float AudioCallbackRate() const;
  99:../../DaisyExamples/libDaisy//src/daisy_seed.h **** 
 100:../../DaisyExamples/libDaisy//src/daisy_seed.h ****     /** Sets the state of the built in LED
 101:../../DaisyExamples/libDaisy//src/daisy_seed.h ****      */
 102:../../DaisyExamples/libDaisy//src/daisy_seed.h ****     void SetLed(bool state);
 103:../../DaisyExamples/libDaisy//src/daisy_seed.h **** 
 104:../../DaisyExamples/libDaisy//src/daisy_seed.h ****     /** Sets the state of the test point near pin 10
 105:../../DaisyExamples/libDaisy//src/daisy_seed.h ****      */
 106:../../DaisyExamples/libDaisy//src/daisy_seed.h ****     void SetTestPoint(bool state);
 107:../../DaisyExamples/libDaisy//src/daisy_seed.h **** 
 108:../../DaisyExamples/libDaisy//src/daisy_seed.h ****     /** Print formatted debug log message
 109:../../DaisyExamples/libDaisy//src/daisy_seed.h ****      */
 110:../../DaisyExamples/libDaisy//src/daisy_seed.h ****     template <typename... VA>
 111:../../DaisyExamples/libDaisy//src/daisy_seed.h ****     static void Print(const char* format, VA... va)
 112:../../DaisyExamples/libDaisy//src/daisy_seed.h ****     {
 113:../../DaisyExamples/libDaisy//src/daisy_seed.h ****         Log::Print(format, va...);
 114:../../DaisyExamples/libDaisy//src/daisy_seed.h ****     }
 115:../../DaisyExamples/libDaisy//src/daisy_seed.h **** 
 116:../../DaisyExamples/libDaisy//src/daisy_seed.h ****     /** Print formatted debug log message with automatic line termination
 117:../../DaisyExamples/libDaisy//src/daisy_seed.h ****     */
 118:../../DaisyExamples/libDaisy//src/daisy_seed.h ****     template <typename... VA>
 119:../../DaisyExamples/libDaisy//src/daisy_seed.h ****     static void PrintLine(const char* format, VA... va)
 120:../../DaisyExamples/libDaisy//src/daisy_seed.h ****     {
 121:../../DaisyExamples/libDaisy//src/daisy_seed.h ****         Log::PrintLine(format, va...);
 182              		.loc 2 121 23 view .LVU42
 183 002a 1348     		ldr	r0, .L11+20
 184              	.LBE61:
 185              	.LBE60:
  35:run.cpp       **** 		// Calculate Resistance
 186              		.loc 1 35 30 view .LVU43
 187 002c 85EE867A 		vdiv.f32	s14, s11, s12
  35:run.cpp       **** 		// Calculate Resistance
 188              		.loc 1 35 11 view .LVU44
 189 0030 27EE277A 		vmul.f32	s14, s14, s15
 190              	.LVL6:
 191              		.loc 1 37 3 is_stmt 1 view .LVU45
  38:run.cpp       **** 		hw.PrintLine("%7d;%2.6f;%4.6f", result, v, t);
 192              		.loc 1 38 3 view .LVU46
 193              	.LBB65:
 194              	.LBI60:
 119:../../DaisyExamples/libDaisy//src/daisy_seed.h ****     {
 195              		.loc 2 119 17 view .LVU47
 196              	.LBE65:
  37:run.cpp       **** 		hw.PrintLine("%7d;%2.6f;%4.6f", result, v, t);
 197              		.loc 1 37 21 is_stmt 0 view .LVU48
 198 0034 77EEC77A 		vsub.f32	s15, s15, s14
 199              	.LBB66:
 200              	.LBB62:
 201              		.loc 2 121 23 view .LVU49
 202 0038 B7EEC75A 		vcvt.f64.f32	d5, s14
 203              	.LBE62:
 204              	.LBE66:
  37:run.cpp       **** 		hw.PrintLine("%7d;%2.6f;%4.6f", result, v, t);
 205              		.loc 1 37 26 view .LVU50
 206 003c 67EEA67A 		vmul.f32	s15, s15, s13
 207              	.LBB67:
ARM GAS  /tmp/ccD6FYWN.s 			page 13


 208              	.LBB63:
 209              		.loc 2 121 23 view .LVU51
 210 0040 53EC152B 		vmov	r2, r3, d5
 211              	.LBE63:
 212              	.LBE67:
  37:run.cpp       **** 		hw.PrintLine("%7d;%2.6f;%4.6f", result, v, t);
 213              		.loc 1 37 11 view .LVU52
 214 0044 C7EE876A 		vdiv.f32	s13, s15, s14
 215              	.LVL7:
 216              	.LBB68:
 217              	.LBB64:
 218              		.loc 2 121 23 view .LVU53
 219 0048 B7EEE67A 		vcvt.f64.f32	d7, s13
 220              	.LVL8:
 221              		.loc 2 121 23 view .LVU54
 222 004c 8DED007B 		vstr.64	d7, [sp]
 223              	.LVL9:
 224              		.loc 2 121 23 view .LVU55
 225 0050 FFF7FEFF 		bl	_ZN5daisy6LoggerILNS_17LoggerDestinationE1EE9PrintLineEPKcz
 226              	.LVL10:
 227              		.loc 2 121 23 view .LVU56
 228              	.LBE64:
 229              	.LBE68:
 230              	.LBE69:
  29:run.cpp       **** 	{
 231              		.loc 1 29 2 is_stmt 1 discriminator 3 view .LVU57
  29:run.cpp       **** 	{
 232              		.loc 1 29 23 discriminator 1 view .LVU58
 233 0054 3368     		ldr	r3, [r6]
 234 0056 A342     		cmp	r3, r4
 235 0058 DAD8     		bhi	.L8
 236              	.LVL11:
 237              	.L7:
  29:run.cpp       **** 	{
 238              		.loc 1 29 23 is_stmt 0 discriminator 1 view .LVU59
 239              	.LBE71:
  39:run.cpp       **** 	}
  40:run.cpp       **** 	value_count = 0;
 240              		.loc 1 40 2 is_stmt 1 view .LVU60
 241              		.loc 1 40 14 is_stmt 0 view .LVU61
 242 005a 0023     		movs	r3, #0
 243 005c 3360     		str	r3, [r6]
  41:run.cpp       **** }
 244              		.loc 1 41 1 view .LVU62
 245 005e 02B0     		add	sp, sp, #8
 246              		.cfi_def_cfa_offset 16
 247              		@ sp needed
 248 0060 70BD     		pop	{r4, r5, r6, pc}
 249              	.L12:
 250 0062 00BF     		.align	2
 251              	.L11:
 252 0064 00000000 		.word	_ZL11value_count
 253 0068 080000C0 		.word	-1073741816
 254 006c 00FF7F47 		.word	1199570688
 255 0070 33335340 		.word	1079194419
 256 0074 00007A44 		.word	1148846080
 257 0078 00000000 		.word	.LC0
ARM GAS  /tmp/ccD6FYWN.s 			page 14


 258              		.cfi_endproc
 259              	.LFE4789:
 261              		.section	.text.startup.main,"ax",%progbits
 262              		.align	1
 263              		.p2align 2,,3
 264              		.global	main
 265              		.syntax unified
 266              		.thumb
 267              		.thumb_func
 269              	main:
 270              	.LFB4790:
  42:run.cpp       **** 
  43:run.cpp       **** int main(void)
  44:run.cpp       **** {
 271              		.loc 1 44 1 is_stmt 1 view -0
 272              		.cfi_startproc
 273              		@ args = 0, pretend = 0, frame = 48
 274              		@ frame_needed = 0, uses_anonymous_args = 0
  45:run.cpp       **** 	hw.Init();
 275              		.loc 1 45 2 view .LVU64
  44:run.cpp       **** 	hw.Init();
 276              		.loc 1 44 1 is_stmt 0 view .LVU65
 277 0000 10B5     		push	{r4, lr}
 278              		.cfi_def_cfa_offset 8
 279              		.cfi_offset 4, -8
 280              		.cfi_offset 14, -4
 281              		.loc 1 45 9 view .LVU66
 282 0002 0021     		movs	r1, #0
  44:run.cpp       **** 	hw.Init();
 283              		.loc 1 44 1 view .LVU67
 284 0004 8CB0     		sub	sp, sp, #48
 285              		.cfi_def_cfa_offset 56
 286              		.loc 1 45 9 view .LVU68
 287 0006 3248     		ldr	r0, .L19
  46:run.cpp       **** 
  47:run.cpp       **** 	/** Configure and Initialize the DAC */
  48:run.cpp       ****     DacHandle::Config dac_cfg;
  49:run.cpp       ****     dac_cfg.bitdepth   = DacHandle::BitDepth::BITS_12;
  50:run.cpp       ****     dac_cfg.buff_state = DacHandle::BufferState::ENABLED;
  51:run.cpp       ****     dac_cfg.mode       = DacHandle::Mode::POLLING;
  52:run.cpp       ****     dac_cfg.chn        = DacHandle::Channel::ONE;
 288              		.loc 1 52 24 view .LVU69
 289 0008 0124     		movs	r4, #1
  45:run.cpp       **** 
 290              		.loc 1 45 9 view .LVU70
 291 000a FFF7FEFF 		bl	_ZN5daisy9DaisySeed4InitEb
 292              	.LVL12:
  48:run.cpp       ****     dac_cfg.bitdepth   = DacHandle::BitDepth::BITS_12;
 293              		.loc 1 48 5 is_stmt 1 view .LVU71
  49:run.cpp       ****     dac_cfg.buff_state = DacHandle::BufferState::ENABLED;
 294              		.loc 1 49 5 view .LVU72
  50:run.cpp       ****     dac_cfg.mode       = DacHandle::Mode::POLLING;
 295              		.loc 1 50 5 view .LVU73
  51:run.cpp       ****     dac_cfg.chn        = DacHandle::Channel::ONE;
 296              		.loc 1 51 5 view .LVU74
 297              		.loc 1 52 5 view .LVU75
 298              		.loc 1 52 24 is_stmt 0 view .LVU76
ARM GAS  /tmp/ccD6FYWN.s 			page 15


 299 000e 0023     		movs	r3, #0
  53:run.cpp       ****     hw.dac.Init(dac_cfg);
 300              		.loc 1 53 16 view .LVU77
 301 0010 06A9     		add	r1, sp, #24
 302 0012 3048     		ldr	r0, .L19+4
  52:run.cpp       ****     hw.dac.Init(dac_cfg);
 303              		.loc 1 52 24 view .LVU78
 304 0014 CDE90943 		strd	r4, r3, [sp, #36]
 305              		.loc 1 53 5 is_stmt 1 view .LVU79
  52:run.cpp       ****     hw.dac.Init(dac_cfg);
 306              		.loc 1 52 24 is_stmt 0 view .LVU80
 307 0018 CDE90733 		strd	r3, r3, [sp, #28]
 308              		.loc 1 53 16 view .LVU81
 309 001c FFF7FEFF 		bl	_ZN5daisy9DacHandle4InitERKNS0_6ConfigE
 310              	.LVL13:
  54:run.cpp       **** 
  55:run.cpp       **** 	bool dac_is_high = false;
 311              		.loc 1 55 2 is_stmt 1 view .LVU82
  56:run.cpp       **** 
  57:run.cpp       **** 	// Wait for Serial connection
  58:run.cpp       **** 	hw.StartLog(true);
 312              		.loc 1 58 2 view .LVU83
 313              	.LBB72:
 314              	.LBI72:
 122:../../DaisyExamples/libDaisy//src/daisy_seed.h ****     }
 123:../../DaisyExamples/libDaisy//src/daisy_seed.h **** 
 124:../../DaisyExamples/libDaisy//src/daisy_seed.h ****     /** Start the logging session. Optionally wait for terminal connection before proceeding.
 125:../../DaisyExamples/libDaisy//src/daisy_seed.h ****     */
 126:../../DaisyExamples/libDaisy//src/daisy_seed.h ****     static void StartLog(bool wait_for_pc = false)
 315              		.loc 2 126 17 view .LVU84
 316              	.LBB73:
 127:../../DaisyExamples/libDaisy//src/daisy_seed.h ****     {
 128:../../DaisyExamples/libDaisy//src/daisy_seed.h ****         Log::StartLog(wait_for_pc);
 317              		.loc 2 128 9 view .LVU85
 318              		.loc 2 128 22 is_stmt 0 view .LVU86
 319 0020 2046     		mov	r0, r4
 320 0022 FFF7FEFF 		bl	_ZN5daisy6LoggerILNS_17LoggerDestinationE1EE8StartLogEb
 321              	.LVL14:
 322              		.loc 2 128 22 view .LVU87
 323              	.LBE73:
 324              	.LBE72:
  59:run.cpp       **** 	hw.SetLed(true);
 325              		.loc 1 59 2 is_stmt 1 view .LVU88
 326              		.loc 1 59 11 is_stmt 0 view .LVU89
 327 0026 2146     		mov	r1, r4
 328 0028 2948     		ldr	r0, .L19
 329 002a FFF7FEFF 		bl	_ZN5daisy9DaisySeed6SetLedEb
 330              	.LVL15:
  60:run.cpp       **** 	AdcChannelConfig adcConfig;
 331              		.loc 1 60 2 is_stmt 1 view .LVU90
  61:run.cpp       **** 	adcConfig.InitSingle(hw.GetPin(21));
 332              		.loc 1 61 2 view .LVU91
 333              		.loc 1 61 22 is_stmt 0 view .LVU92
 334 002e 1520     		movs	r0, #21
 335 0030 FFF7FEFF 		bl	_ZN5daisy9DaisySeed6GetPinEh
 336              	.LVL16:
 337 0034 ADF80000 		strh	r0, [sp]	@ movhi
ARM GAS  /tmp/ccD6FYWN.s 			page 16


 338              		.loc 1 61 22 discriminator 1 view .LVU93
 339 0038 0099     		ldr	r1, [sp]
 340 003a 01A8     		add	r0, sp, #4
 341 003c FFF7FEFF 		bl	_ZN5daisy16AdcChannelConfig10InitSingleE12dsy_gpio_pin
 342              	.LVL17:
  62:run.cpp       **** 
  63:run.cpp       **** 	hw.adc.Init(&adcConfig, 1);
 343              		.loc 1 63 2 is_stmt 1 view .LVU94
 344              		.loc 1 63 13 is_stmt 0 view .LVU95
 345 0040 0423     		movs	r3, #4
 346 0042 2246     		mov	r2, r4
 347 0044 2448     		ldr	r0, .L19+8
 348 0046 0DEB0301 		add	r1, sp, r3
  64:run.cpp       **** 	hw.adc.Start();
  65:run.cpp       **** 	while(value_count < NUMBER_OF_VALUES) {	
 349              		.loc 1 65 20 view .LVU96
 350 004a 244C     		ldr	r4, .L19+12
  63:run.cpp       **** 	hw.adc.Start();
 351              		.loc 1 63 13 view .LVU97
 352 004c FFF7FEFF 		bl	_ZN5daisy9AdcHandle4InitEPNS_16AdcChannelConfigEjNS0_12OverSamplingE
 353              	.LVL18:
  64:run.cpp       **** 	hw.adc.Start();
 354              		.loc 1 64 2 is_stmt 1 view .LVU98
  64:run.cpp       **** 	hw.adc.Start();
 355              		.loc 1 64 14 is_stmt 0 view .LVU99
 356 0050 2148     		ldr	r0, .L19+8
 357 0052 FFF7FEFF 		bl	_ZN5daisy9AdcHandle5StartEv
 358              	.LVL19:
 359              		.loc 1 65 2 is_stmt 1 view .LVU100
 360              		.loc 1 65 20 view .LVU101
 361 0056 2368     		ldr	r3, [r4]
 362 0058 B3F5806F 		cmp	r3, #1024
 363 005c 2AD2     		bcs	.L14
  66:run.cpp       **** 		System::DelayUs(48);
 364              		.loc 1 66 3 view .LVU102
 365              		.loc 1 66 18 is_stmt 0 view .LVU103
 366 005e 3020     		movs	r0, #48
 367 0060 FFF7FEFF 		bl	_ZN5daisy6System7DelayUsEm
 368              	.LVL20:
  67:run.cpp       **** 		if(dac_is_high){
 369              		.loc 1 67 3 is_stmt 1 view .LVU104
 370 0064 0DE0     		b	.L15
 371              	.LVL21:
 372              	.L18:
  66:run.cpp       **** 		System::DelayUs(48);
 373              		.loc 1 66 18 is_stmt 0 view .LVU105
 374 0066 FFF7FEFF 		bl	_ZN5daisy6System7DelayUsEm
 375              	.LVL22:
 376              		.loc 1 67 3 is_stmt 1 view .LVU106
  68:run.cpp       **** 			hw.dac.WriteValue(DacHandle::Channel::ONE, 0b0); 
 377              		.loc 1 68 4 view .LVU107
 378              		.loc 1 68 21 is_stmt 0 view .LVU108
 379 006a 0022     		movs	r2, #0
 380 006c 1948     		ldr	r0, .L19+4
 381 006e 1146     		mov	r1, r2
 382 0070 FFF7FEFF 		bl	_ZN5daisy9DacHandle10WriteValueENS0_7ChannelEt
 383              	.LVL23:
ARM GAS  /tmp/ccD6FYWN.s 			page 17


  66:run.cpp       **** 		System::DelayUs(48);
 384              		.loc 1 66 3 is_stmt 1 view .LVU109
  69:run.cpp       **** 			dac_is_high = false;
 385              		.loc 1 69 4 view .LVU110
  65:run.cpp       **** 		System::DelayUs(48);
 386              		.loc 1 65 20 view .LVU111
 387 0074 2368     		ldr	r3, [r4]
  66:run.cpp       **** 		if(dac_is_high){
 388              		.loc 1 66 18 is_stmt 0 view .LVU112
 389 0076 3020     		movs	r0, #48
  65:run.cpp       **** 		System::DelayUs(48);
 390              		.loc 1 65 20 view .LVU113
 391 0078 B3F5806F 		cmp	r3, #1024
 392 007c 1AD2     		bcs	.L14
  66:run.cpp       **** 		if(dac_is_high){
 393              		.loc 1 66 18 view .LVU114
 394 007e FFF7FEFF 		bl	_ZN5daisy6System7DelayUsEm
 395              	.LVL24:
  67:run.cpp       **** 			hw.dac.WriteValue(DacHandle::Channel::ONE, 0b0); 
 396              		.loc 1 67 3 is_stmt 1 view .LVU115
 397              	.L15:
  70:run.cpp       **** 		}
  71:run.cpp       **** 		else {
  72:run.cpp       **** 			// On rising Edge
  73:run.cpp       **** 			store_value(hw.adc.Get(0));
 398              		.loc 1 73 4 view .LVU116
 399              		.loc 1 73 15 is_stmt 0 view .LVU117
 400 0082 0021     		movs	r1, #0
 401 0084 1448     		ldr	r0, .L19+8
 402 0086 FFF7FEFF 		bl	_ZNK5daisy9AdcHandle3GetEh
 403              	.LVL25:
 404              	.LBB74:
 405              	.LBB75:
  23:run.cpp       **** 	value_count++;
 406              		.loc 1 23 42 view .LVU118
 407 008a 2368     		ldr	r3, [r4]
 408              	.LBE75:
 409              	.LBE74:
 410              		.loc 1 73 15 view .LVU119
 411 008c 8646     		mov	lr, r0
 412              	.LVL26:
 413              	.LBB79:
 414              	.LBI74:
  20:run.cpp       **** 	int32_t *ram = (int32_t *)0xC0000000;
 415              		.loc 1 20 6 is_stmt 1 view .LVU120
 416              	.LBB76:
  21:run.cpp       **** 	unsigned char const *p = reinterpret_cast<unsigned char const *>(&value);
 417              		.loc 1 21 2 view .LVU121
  22:run.cpp       **** 	memcpy((sizeof(uint16_t) * value_count) + ram, p, sizeof(uint16_t));
 418              		.loc 1 22 2 view .LVU122
  23:run.cpp       **** 	value_count++;
 419              		.loc 1 23 2 view .LVU123
 420              	.LBE76:
 421              	.LBE79:
  74:run.cpp       **** 			// 4096 ~ 3.3V => 1284 ~ 1V
  75:run.cpp       **** 			hw.dac.WriteValue(DacHandle::Channel::ONE, 1284);
 422              		.loc 1 75 21 is_stmt 0 view .LVU124
ARM GAS  /tmp/ccD6FYWN.s 			page 18


 423 008e 40F20452 		movw	r2, #1284
 424              	.LBB80:
 425              	.LBB77:
  23:run.cpp       **** 	value_count++;
 426              		.loc 1 23 8 view .LVU125
 427 0092 4FEAC30C 		lsl	ip, r3, #3
  24:run.cpp       **** }
 428              		.loc 1 24 13 view .LVU126
 429 0096 0133     		adds	r3, r3, #1
 430              	.LBE77:
 431              	.LBE80:
 432              		.loc 1 75 21 view .LVU127
 433 0098 0021     		movs	r1, #0
 434 009a 0E48     		ldr	r0, .L19+4
 435              	.LBB81:
 436              	.LBB78:
  23:run.cpp       **** 	value_count++;
 437              		.loc 1 23 8 view .LVU128
 438 009c 0CF1404C 		add	ip, ip, #-1073741824
  24:run.cpp       **** }
 439              		.loc 1 24 13 view .LVU129
 440 00a0 2360     		str	r3, [r4]
  23:run.cpp       **** 	value_count++;
 441              		.loc 1 23 8 view .LVU130
 442 00a2 ACF800E0 		strh	lr, [ip]	@ movhi
  24:run.cpp       **** }
 443              		.loc 1 24 2 is_stmt 1 view .LVU131
 444              	.LVL27:
  24:run.cpp       **** }
 445              		.loc 1 24 2 is_stmt 0 view .LVU132
 446              	.LBE78:
 447              	.LBE81:
 448              		.loc 1 75 4 is_stmt 1 view .LVU133
 449              		.loc 1 75 21 is_stmt 0 view .LVU134
 450 00a6 FFF7FEFF 		bl	_ZN5daisy9DacHandle10WriteValueENS0_7ChannelEt
 451              	.LVL28:
  76:run.cpp       **** 			dac_is_high = true;
 452              		.loc 1 76 4 is_stmt 1 view .LVU135
  65:run.cpp       **** 		System::DelayUs(48);
 453              		.loc 1 65 20 view .LVU136
  66:run.cpp       **** 		if(dac_is_high){
 454              		.loc 1 66 3 view .LVU137
  65:run.cpp       **** 		System::DelayUs(48);
 455              		.loc 1 65 20 is_stmt 0 view .LVU138
 456 00aa 2368     		ldr	r3, [r4]
  66:run.cpp       **** 		if(dac_is_high){
 457              		.loc 1 66 18 view .LVU139
 458 00ac 3020     		movs	r0, #48
  65:run.cpp       **** 		System::DelayUs(48);
 459              		.loc 1 65 20 view .LVU140
 460 00ae B3F5806F 		cmp	r3, #1024
 461 00b2 D8D3     		bcc	.L18
 462              	.LVL29:
 463              	.L14:
  77:run.cpp       **** 		}
  78:run.cpp       **** 	}
  79:run.cpp       **** 	// 
ARM GAS  /tmp/ccD6FYWN.s 			page 19


  80:run.cpp       **** 	System::Delay(1000);
 464              		.loc 1 80 2 is_stmt 1 view .LVU141
 465              		.loc 1 80 15 is_stmt 0 view .LVU142
 466 00b4 4FF47A70 		mov	r0, #1000
 467 00b8 FFF7FEFF 		bl	_ZN5daisy6System5DelayEm
 468              	.LVL30:
  81:run.cpp       **** 	// done turn of the LED
  82:run.cpp       **** 	hw.SetLed(false);
 469              		.loc 1 82 2 is_stmt 1 view .LVU143
 470              		.loc 1 82 11 is_stmt 0 view .LVU144
 471 00bc 0021     		movs	r1, #0
 472 00be 0448     		ldr	r0, .L19
 473 00c0 FFF7FEFF 		bl	_ZN5daisy9DaisySeed6SetLedEb
 474              	.LVL31:
  83:run.cpp       **** 	calculate_voltages_and_temp();	
 475              		.loc 1 83 2 is_stmt 1 view .LVU145
 476              		.loc 1 83 29 is_stmt 0 view .LVU146
 477 00c4 FFF7FEFF 		bl	_Z27calculate_voltages_and_tempv
 478              	.LVL32:
  84:run.cpp       **** }
 479              		.loc 1 84 1 view .LVU147
 480 00c8 0020     		movs	r0, #0
 481 00ca 0CB0     		add	sp, sp, #48
 482              		.cfi_def_cfa_offset 8
 483              		@ sp needed
 484 00cc 10BD     		pop	{r4, pc}
 485              	.L20:
 486 00ce 00BF     		.align	2
 487              	.L19:
 488 00d0 00000000 		.word	hw
 489 00d4 20000000 		.word	hw+32
 490 00d8 18000000 		.word	hw+24
 491 00dc 00000000 		.word	_ZL11value_count
 492              		.cfi_endproc
 493              	.LFE4790:
 495              		.section	.text.startup._GLOBAL__sub_I_hw,"ax",%progbits
 496              		.align	1
 497              		.p2align 2,,3
 498              		.syntax unified
 499              		.thumb
 500              		.thumb_func
 502              	_GLOBAL__sub_I_hw:
 503              	.LFB5374:
 504              		.loc 1 84 1 is_stmt 1 view -0
 505              		.cfi_startproc
 506              		@ args = 0, pretend = 0, frame = 0
 507              		@ frame_needed = 0, uses_anonymous_args = 0
 508              		@ link register save eliminated.
 509              	.LBB100:
 510              	.LBI100:
 511              		.loc 1 84 1 view .LVU149
 512              	.LVL33:
 513              	.LBB101:
 514              	.LBB102:
 515              	.LBI102:
  21:../../DaisyExamples/libDaisy//src/daisy_seed.h ****     ~DaisySeed() {}
 516              		.loc 2 21 5 view .LVU150
ARM GAS  /tmp/ccD6FYWN.s 			page 20


 517              	.LBB103:
 518              	.LBB104:
 519              	.LBI104:
 520              		.file 7 "../../DaisyExamples/libDaisy//src/per/qspi.h"
   1:../../DaisyExamples/libDaisy//src/per/qspi.h **** #ifndef DSY_QSPI
   2:../../DaisyExamples/libDaisy//src/per/qspi.h **** #define DSY_QSPI /**< Macro */
   3:../../DaisyExamples/libDaisy//src/per/qspi.h **** 
   4:../../DaisyExamples/libDaisy//src/per/qspi.h **** #ifndef UNIT_TEST // for unit tests, a dummy implementation
   5:../../DaisyExamples/libDaisy//src/per/qspi.h **** 
   6:../../DaisyExamples/libDaisy//src/per/qspi.h **** #include <cstdint>
   7:../../DaisyExamples/libDaisy//src/per/qspi.h **** #include "daisy_core.h" // Added for dsy_gpio_pin typedef
   8:../../DaisyExamples/libDaisy//src/per/qspi.h **** 
   9:../../DaisyExamples/libDaisy//src/per/qspi.h **** #define DSY_QSPI_TEXT       \
  10:../../DaisyExamples/libDaisy//src/per/qspi.h ****     __attribute__((section( \
  11:../../DaisyExamples/libDaisy//src/per/qspi.h ****         ".qspiflash_text"))) /**< used for reading memory in memory_mapped mode. */
  12:../../DaisyExamples/libDaisy//src/per/qspi.h **** #define DSY_QSPI_DATA       \
  13:../../DaisyExamples/libDaisy//src/per/qspi.h ****     __attribute__((section( \
  14:../../DaisyExamples/libDaisy//src/per/qspi.h ****         ".qspiflash_data"))) /**< used for reading memory in memory_mapped mode. */
  15:../../DaisyExamples/libDaisy//src/per/qspi.h **** #define DSY_QSPI_BSS        \
  16:../../DaisyExamples/libDaisy//src/per/qspi.h ****     __attribute__((section( \
  17:../../DaisyExamples/libDaisy//src/per/qspi.h ****         ".qspiflash_bss"))) /**< used for reading memory in memory_mapped mode. */
  18:../../DaisyExamples/libDaisy//src/per/qspi.h **** 
  19:../../DaisyExamples/libDaisy//src/per/qspi.h **** namespace daisy
  20:../../DaisyExamples/libDaisy//src/per/qspi.h **** {
  21:../../DaisyExamples/libDaisy//src/per/qspi.h **** /** @addtogroup serial
  22:../../DaisyExamples/libDaisy//src/per/qspi.h **** @{
  23:../../DaisyExamples/libDaisy//src/per/qspi.h **** */
  24:../../DaisyExamples/libDaisy//src/per/qspi.h **** 
  25:../../DaisyExamples/libDaisy//src/per/qspi.h **** /** 
  26:../../DaisyExamples/libDaisy//src/per/qspi.h ****  Driver for QSPI peripheral to interface with external flash memory. \n 
  27:../../DaisyExamples/libDaisy//src/per/qspi.h ****     Currently supported QSPI Devices: \n 
  28:../../DaisyExamples/libDaisy//src/per/qspi.h ****     * IS25LP080D
  29:../../DaisyExamples/libDaisy//src/per/qspi.h **** */
  30:../../DaisyExamples/libDaisy//src/per/qspi.h **** class QSPIHandle
  31:../../DaisyExamples/libDaisy//src/per/qspi.h **** {
  32:../../DaisyExamples/libDaisy//src/per/qspi.h ****   public:
  33:../../DaisyExamples/libDaisy//src/per/qspi.h ****     enum Result
  34:../../DaisyExamples/libDaisy//src/per/qspi.h ****     {
  35:../../DaisyExamples/libDaisy//src/per/qspi.h ****         OK = 0,
  36:../../DaisyExamples/libDaisy//src/per/qspi.h ****         ERR
  37:../../DaisyExamples/libDaisy//src/per/qspi.h ****     };
  38:../../DaisyExamples/libDaisy//src/per/qspi.h **** 
  39:../../DaisyExamples/libDaisy//src/per/qspi.h ****     /** Indicates the current status of the module. 
  40:../../DaisyExamples/libDaisy//src/per/qspi.h ****          *  Warnings are indicated by a leading W.
  41:../../DaisyExamples/libDaisy//src/per/qspi.h ****          *  Errors are indicated by a leading E and cause an immediate exit.
  42:../../DaisyExamples/libDaisy//src/per/qspi.h ****          * 
  43:../../DaisyExamples/libDaisy//src/per/qspi.h ****          *  \param GOOD - No errors have been reported.
  44:../../DaisyExamples/libDaisy//src/per/qspi.h ****          *  \param E_HAL_ERROR - HAL code did not return HAL_OK.
  45:../../DaisyExamples/libDaisy//src/per/qspi.h ****          *  \param E_SWITCHING_MODES - An error was encountered while switching QSPI peripheral mod
  46:../../DaisyExamples/libDaisy//src/per/qspi.h ****          *  \param E_INVALID_MODE - QSPI should not be written to while the program is executing fr
  47:../../DaisyExamples/libDaisy//src/per/qspi.h ****          */
  48:../../DaisyExamples/libDaisy//src/per/qspi.h ****     enum Status
  49:../../DaisyExamples/libDaisy//src/per/qspi.h ****     {
  50:../../DaisyExamples/libDaisy//src/per/qspi.h ****         GOOD = 0,
  51:../../DaisyExamples/libDaisy//src/per/qspi.h ****         E_HAL_ERROR,
  52:../../DaisyExamples/libDaisy//src/per/qspi.h ****         E_SWITCHING_MODES,
  53:../../DaisyExamples/libDaisy//src/per/qspi.h ****         E_INVALID_MODE,
ARM GAS  /tmp/ccD6FYWN.s 			page 21


  54:../../DaisyExamples/libDaisy//src/per/qspi.h ****     };
  55:../../DaisyExamples/libDaisy//src/per/qspi.h **** 
  56:../../DaisyExamples/libDaisy//src/per/qspi.h ****     /** Configuration structure for interfacing with QSPI Driver */
  57:../../DaisyExamples/libDaisy//src/per/qspi.h ****     struct Config
  58:../../DaisyExamples/libDaisy//src/per/qspi.h ****     {
  59:../../DaisyExamples/libDaisy//src/per/qspi.h ****         /** Flash Devices supported. (Both of these are more-or-less the same, just different sizes
  60:../../DaisyExamples/libDaisy//src/per/qspi.h ****         enum Device
  61:../../DaisyExamples/libDaisy//src/per/qspi.h ****         {
  62:../../DaisyExamples/libDaisy//src/per/qspi.h ****             IS25LP080D,  /**< & */
  63:../../DaisyExamples/libDaisy//src/per/qspi.h ****             IS25LP064A,  /**< & */
  64:../../DaisyExamples/libDaisy//src/per/qspi.h ****             DEVICE_LAST, /**< & */
  65:../../DaisyExamples/libDaisy//src/per/qspi.h ****         };
  66:../../DaisyExamples/libDaisy//src/per/qspi.h **** 
  67:../../DaisyExamples/libDaisy//src/per/qspi.h ****         /** 
  68:../../DaisyExamples/libDaisy//src/per/qspi.h ****         Modes of operation.
  69:../../DaisyExamples/libDaisy//src/per/qspi.h ****         Memory Mapped mode: QSPI configured so that the QSPI can be
  70:../../DaisyExamples/libDaisy//src/per/qspi.h ****         read from starting address 0x90000000. Writing is not
  71:../../DaisyExamples/libDaisy//src/per/qspi.h ****         possible in this mode. \n 
  72:../../DaisyExamples/libDaisy//src/per/qspi.h ****         Indirect Polling mode: Device driver enabled. 
  73:../../DaisyExamples/libDaisy//src/per/qspi.h ****         */
  74:../../DaisyExamples/libDaisy//src/per/qspi.h ****         enum Mode
  75:../../DaisyExamples/libDaisy//src/per/qspi.h ****         {
  76:../../DaisyExamples/libDaisy//src/per/qspi.h ****             MEMORY_MAPPED,    /**< & */
  77:../../DaisyExamples/libDaisy//src/per/qspi.h ****             INDIRECT_POLLING, /**< & */
  78:../../DaisyExamples/libDaisy//src/per/qspi.h ****             MODE_LAST,
  79:../../DaisyExamples/libDaisy//src/per/qspi.h ****         };
  80:../../DaisyExamples/libDaisy//src/per/qspi.h **** 
  81:../../DaisyExamples/libDaisy//src/per/qspi.h ****         //SCK,  CE# (active low)
  82:../../DaisyExamples/libDaisy//src/per/qspi.h ****         struct
  83:../../DaisyExamples/libDaisy//src/per/qspi.h ****         {
  84:../../DaisyExamples/libDaisy//src/per/qspi.h ****             dsy_gpio_pin io0; /**< & */
  85:../../DaisyExamples/libDaisy//src/per/qspi.h ****             dsy_gpio_pin io1; /**< & */
  86:../../DaisyExamples/libDaisy//src/per/qspi.h ****             dsy_gpio_pin io2; /**< & */
  87:../../DaisyExamples/libDaisy//src/per/qspi.h ****             dsy_gpio_pin io3; /**< & */
  88:../../DaisyExamples/libDaisy//src/per/qspi.h ****             dsy_gpio_pin clk; /**< & */
  89:../../DaisyExamples/libDaisy//src/per/qspi.h ****             dsy_gpio_pin ncs; /**< & */
  90:../../DaisyExamples/libDaisy//src/per/qspi.h ****         } pin_config;
  91:../../DaisyExamples/libDaisy//src/per/qspi.h **** 
  92:../../DaisyExamples/libDaisy//src/per/qspi.h ****         Device device;
  93:../../DaisyExamples/libDaisy//src/per/qspi.h ****         Mode   mode;
  94:../../DaisyExamples/libDaisy//src/per/qspi.h ****     };
  95:../../DaisyExamples/libDaisy//src/per/qspi.h **** 
  96:../../DaisyExamples/libDaisy//src/per/qspi.h ****     /** 
  97:../../DaisyExamples/libDaisy//src/per/qspi.h ****         Initializes QSPI peripheral, and Resets, and prepares memory for access.
  98:../../DaisyExamples/libDaisy//src/per/qspi.h ****         \param config should be populated with the mode, device and pin_config before calling this 
  99:../../DaisyExamples/libDaisy//src/per/qspi.h ****         \return Result::OK or Result::ERR
 100:../../DaisyExamples/libDaisy//src/per/qspi.h ****         */
 101:../../DaisyExamples/libDaisy//src/per/qspi.h ****     Result Init(const Config& config);
 102:../../DaisyExamples/libDaisy//src/per/qspi.h **** 
 103:../../DaisyExamples/libDaisy//src/per/qspi.h ****     /** Returns the current config. */
 104:../../DaisyExamples/libDaisy//src/per/qspi.h ****     const Config& GetConfig() const;
 105:../../DaisyExamples/libDaisy//src/per/qspi.h **** 
 106:../../DaisyExamples/libDaisy//src/per/qspi.h ****     // Couldn't this just be called before anything else in init? That
 107:../../DaisyExamples/libDaisy//src/per/qspi.h ****     // would make manually calling it unnecessary.
 108:../../DaisyExamples/libDaisy//src/per/qspi.h ****     /** 
 109:../../DaisyExamples/libDaisy//src/per/qspi.h ****         Deinitializes the peripheral
 110:../../DaisyExamples/libDaisy//src/per/qspi.h ****         This should be called before reinitializing QSPI in a different mode.
ARM GAS  /tmp/ccD6FYWN.s 			page 22


 111:../../DaisyExamples/libDaisy//src/per/qspi.h ****         \return Result::OK or Result::ERR
 112:../../DaisyExamples/libDaisy//src/per/qspi.h ****         */
 113:../../DaisyExamples/libDaisy//src/per/qspi.h ****     Result DeInit();
 114:../../DaisyExamples/libDaisy//src/per/qspi.h **** 
 115:../../DaisyExamples/libDaisy//src/per/qspi.h ****     /** 
 116:../../DaisyExamples/libDaisy//src/per/qspi.h ****         Writes a single page to to the specified address on the QSPI chip.
 117:../../DaisyExamples/libDaisy//src/per/qspi.h ****         For IS25LP*, page size is 256 bytes.
 118:../../DaisyExamples/libDaisy//src/per/qspi.h ****         \param address Address to write to
 119:../../DaisyExamples/libDaisy//src/per/qspi.h ****         \param size Buffer size
 120:../../DaisyExamples/libDaisy//src/per/qspi.h ****         \param buffer Buffer to write
 121:../../DaisyExamples/libDaisy//src/per/qspi.h ****         \return Result::OK or Result::ERR
 122:../../DaisyExamples/libDaisy//src/per/qspi.h ****         */
 123:../../DaisyExamples/libDaisy//src/per/qspi.h ****     Result WritePage(uint32_t address, uint32_t size, uint8_t* buffer);
 124:../../DaisyExamples/libDaisy//src/per/qspi.h **** 
 125:../../DaisyExamples/libDaisy//src/per/qspi.h ****     /** 
 126:../../DaisyExamples/libDaisy//src/per/qspi.h ****         Writes data in buffer to to the QSPI. Starting at address to address+size 
 127:../../DaisyExamples/libDaisy//src/per/qspi.h ****         \param address Address to write to
 128:../../DaisyExamples/libDaisy//src/per/qspi.h ****         \param size Buffer size
 129:../../DaisyExamples/libDaisy//src/per/qspi.h ****         \param buffer Buffer to write
 130:../../DaisyExamples/libDaisy//src/per/qspi.h ****         \return Result::OK or Result::ERR
 131:../../DaisyExamples/libDaisy//src/per/qspi.h ****         */
 132:../../DaisyExamples/libDaisy//src/per/qspi.h ****     Result Write(uint32_t address, uint32_t size, uint8_t* buffer);
 133:../../DaisyExamples/libDaisy//src/per/qspi.h **** 
 134:../../DaisyExamples/libDaisy//src/per/qspi.h ****     /** 
 135:../../DaisyExamples/libDaisy//src/per/qspi.h ****         Erases the area specified on the chip.
 136:../../DaisyExamples/libDaisy//src/per/qspi.h ****         Erasures will happen by 4K, 32K or 64K increments.
 137:../../DaisyExamples/libDaisy//src/per/qspi.h ****         Smallest erase possible is 4kB at a time. (on IS25LP*)
 138:../../DaisyExamples/libDaisy//src/per/qspi.h ****         \param start_addr Address to begin erasing from
 139:../../DaisyExamples/libDaisy//src/per/qspi.h ****         \param end_addr  Address to stop erasing at
 140:../../DaisyExamples/libDaisy//src/per/qspi.h ****         \return Result::OK or Result::ERR
 141:../../DaisyExamples/libDaisy//src/per/qspi.h ****         */
 142:../../DaisyExamples/libDaisy//src/per/qspi.h ****     Result Erase(uint32_t start_addr, uint32_t end_addr);
 143:../../DaisyExamples/libDaisy//src/per/qspi.h **** 
 144:../../DaisyExamples/libDaisy//src/per/qspi.h ****     /**  
 145:../../DaisyExamples/libDaisy//src/per/qspi.h ****          Erases a single sector of the chip.  
 146:../../DaisyExamples/libDaisy//src/per/qspi.h ****         TODO: Document the size of this function. 
 147:../../DaisyExamples/libDaisy//src/per/qspi.h ****         \param address Address of sector to erase
 148:../../DaisyExamples/libDaisy//src/per/qspi.h ****         \return Result::OK or Result::ERR
 149:../../DaisyExamples/libDaisy//src/per/qspi.h ****         */
 150:../../DaisyExamples/libDaisy//src/per/qspi.h ****     Result EraseSector(uint32_t address);
 151:../../DaisyExamples/libDaisy//src/per/qspi.h **** 
 152:../../DaisyExamples/libDaisy//src/per/qspi.h ****     /** Returns the current class status. Useful for debugging.
 153:../../DaisyExamples/libDaisy//src/per/qspi.h ****      *  \returns Status
 154:../../DaisyExamples/libDaisy//src/per/qspi.h ****      */
 155:../../DaisyExamples/libDaisy//src/per/qspi.h ****     Status GetStatus();
 156:../../DaisyExamples/libDaisy//src/per/qspi.h **** 
 157:../../DaisyExamples/libDaisy//src/per/qspi.h ****     /** Returns a pointer to the actual memory used 
 158:../../DaisyExamples/libDaisy//src/per/qspi.h ****      *  The memory at this address is read-only
 159:../../DaisyExamples/libDaisy//src/per/qspi.h ****      *  to write to it use the Write function.
 160:../../DaisyExamples/libDaisy//src/per/qspi.h ****      * 
 161:../../DaisyExamples/libDaisy//src/per/qspi.h ****      *  \param offset returns the pointer starting this 
 162:../../DaisyExamples/libDaisy//src/per/qspi.h ****      *                many bytes into the memory
 163:../../DaisyExamples/libDaisy//src/per/qspi.h ****     */
 164:../../DaisyExamples/libDaisy//src/per/qspi.h ****     void* GetData(uint32_t offset = 0);
 165:../../DaisyExamples/libDaisy//src/per/qspi.h **** 
 166:../../DaisyExamples/libDaisy//src/per/qspi.h ****     QSPIHandle() : pimpl_(nullptr) {}
 521              		.loc 7 166 5 view .LVU151
ARM GAS  /tmp/ccD6FYWN.s 			page 23


 522              	.LBB105:
 523              	.LBB106:
 524              		.loc 7 166 20 is_stmt 0 view .LVU152
 525 0000 0448     		ldr	r0, .L22
 526 0002 0023     		movs	r3, #0
 527              	.LBE106:
 528              	.LBE105:
 529              	.LBE104:
 530              	.LBE103:
 531              	.LBE102:
  13:run.cpp       **** static size_t value_count = 0;
 532              		.loc 1 13 11 discriminator 1 view .LVU153
 533 0004 044A     		ldr	r2, .L22+4
 534 0006 0549     		ldr	r1, .L22+8
 535              	.LBB120:
 536              	.LBB119:
 537              	.LBB109:
 538              	.LBB108:
 539              	.LBB107:
 540              		.loc 7 166 20 view .LVU154
 541 0008 0360     		str	r3, [r0]
 542              	.LVL34:
 543              		.loc 7 166 20 view .LVU155
 544              	.LBE107:
 545              	.LBE108:
 546              	.LBE109:
 547              	.LBB110:
 548              	.LBI110:
  95:../../DaisyExamples/libDaisy//src/hid/audio.h ****     ~AudioHandle() {}
 549              		.loc 6 95 5 is_stmt 1 view .LVU156
 550              	.LBB111:
 551              	.LBB112:
  95:../../DaisyExamples/libDaisy//src/hid/audio.h ****     ~AudioHandle() {}
 552              		.loc 6 95 21 is_stmt 0 view .LVU157
 553 000a 4361     		str	r3, [r0, #20]
 554              	.LVL35:
  95:../../DaisyExamples/libDaisy//src/hid/audio.h ****     ~AudioHandle() {}
 555              		.loc 6 95 21 view .LVU158
 556              	.LBE112:
 557              	.LBE111:
 558              	.LBE110:
 559              	.LBB113:
 560              	.LBI113:
  92:../../DaisyExamples/libDaisy//src/per/adc.h ****     ~AdcHandle() {}
 561              		.loc 5 92 5 is_stmt 1 view .LVU159
  92:../../DaisyExamples/libDaisy//src/per/adc.h ****     ~AdcHandle() {}
 562              		.loc 5 92 5 is_stmt 0 view .LVU160
 563              	.LBE113:
 564              	.LBB114:
 565              	.LBI114:
 566              		.file 8 "../../DaisyExamples/libDaisy//src/per/dac.h"
   1:../../DaisyExamples/libDaisy//src/per/dac.h **** #pragma once
   2:../../DaisyExamples/libDaisy//src/per/dac.h **** #ifndef DSY_DAC_H
   3:../../DaisyExamples/libDaisy//src/per/dac.h **** #define DSY_DAC_H
   4:../../DaisyExamples/libDaisy//src/per/dac.h **** 
   5:../../DaisyExamples/libDaisy//src/per/dac.h **** #include "daisy_core.h"
   6:../../DaisyExamples/libDaisy//src/per/dac.h **** 
ARM GAS  /tmp/ccD6FYWN.s 			page 24


   7:../../DaisyExamples/libDaisy//src/per/dac.h **** namespace daisy
   8:../../DaisyExamples/libDaisy//src/per/dac.h **** {
   9:../../DaisyExamples/libDaisy//src/per/dac.h **** /** @brief DAC handle for Built-in DAC Peripheral 
  10:../../DaisyExamples/libDaisy//src/per/dac.h ****  *  @ingroup per_analog
  11:../../DaisyExamples/libDaisy//src/per/dac.h ****  ** 
  12:../../DaisyExamples/libDaisy//src/per/dac.h ****  ** For now only Normal Mode is supported,
  13:../../DaisyExamples/libDaisy//src/per/dac.h ****  ** Sample and hold mode provides reduced power consumption, but requires a bit more setup.
  14:../../DaisyExamples/libDaisy//src/per/dac.h ****  **
  15:../../DaisyExamples/libDaisy//src/per/dac.h ****  ** For now connecting the DAC through other internal peripherals is also not supported.
  16:../../DaisyExamples/libDaisy//src/per/dac.h ****  **
  17:../../DaisyExamples/libDaisy//src/per/dac.h ****  ** Since the DAC channels have dedicated pins we don't need to pass in a pin config like with
  18:../../DaisyExamples/libDaisy//src/per/dac.h ****  ** other modules. However, it is still important to not try to use the DAC pins for anything else.
  19:../../DaisyExamples/libDaisy//src/per/dac.h ****  ** DAC Channel 1 is on PA4, and DAC Channel 2 is on PA5
  20:../../DaisyExamples/libDaisy//src/per/dac.h ****  ***/
  21:../../DaisyExamples/libDaisy//src/per/dac.h **** class DacHandle
  22:../../DaisyExamples/libDaisy//src/per/dac.h **** {
  23:../../DaisyExamples/libDaisy//src/per/dac.h ****   public:
  24:../../DaisyExamples/libDaisy//src/per/dac.h ****     /** Return Values for the DacHandle class */
  25:../../DaisyExamples/libDaisy//src/per/dac.h ****     enum class Result
  26:../../DaisyExamples/libDaisy//src/per/dac.h ****     {
  27:../../DaisyExamples/libDaisy//src/per/dac.h ****         OK,
  28:../../DaisyExamples/libDaisy//src/per/dac.h ****         ERR,
  29:../../DaisyExamples/libDaisy//src/per/dac.h ****     };
  30:../../DaisyExamples/libDaisy//src/per/dac.h **** 
  31:../../DaisyExamples/libDaisy//src/per/dac.h ****     /** Selects which channel(s) will be configured for use. */
  32:../../DaisyExamples/libDaisy//src/per/dac.h ****     enum class Channel
  33:../../DaisyExamples/libDaisy//src/per/dac.h ****     {
  34:../../DaisyExamples/libDaisy//src/per/dac.h ****         ONE,
  35:../../DaisyExamples/libDaisy//src/per/dac.h ****         TWO,
  36:../../DaisyExamples/libDaisy//src/per/dac.h ****         BOTH,
  37:../../DaisyExamples/libDaisy//src/per/dac.h ****     };
  38:../../DaisyExamples/libDaisy//src/per/dac.h **** 
  39:../../DaisyExamples/libDaisy//src/per/dac.h ****     /** Sets the Mode for the DAC channels.
  40:../../DaisyExamples/libDaisy//src/per/dac.h ****      **
  41:../../DaisyExamples/libDaisy//src/per/dac.h ****      ** Polling mode uses the blocking mode to transmit a single value at a time.
  42:../../DaisyExamples/libDaisy//src/per/dac.h ****      **
  43:../../DaisyExamples/libDaisy//src/per/dac.h ****      ** DMA mode uses a buffer, and periodically transmits it triggering a 
  44:../../DaisyExamples/libDaisy//src/per/dac.h ****      ** callback to fill the buffer when it is ready for more samples.
  45:../../DaisyExamples/libDaisy//src/per/dac.h ****      ***/
  46:../../DaisyExamples/libDaisy//src/per/dac.h ****     enum class Mode
  47:../../DaisyExamples/libDaisy//src/per/dac.h ****     {
  48:../../DaisyExamples/libDaisy//src/per/dac.h ****         POLLING,
  49:../../DaisyExamples/libDaisy//src/per/dac.h ****         DMA,
  50:../../DaisyExamples/libDaisy//src/per/dac.h ****     };
  51:../../DaisyExamples/libDaisy//src/per/dac.h **** 
  52:../../DaisyExamples/libDaisy//src/per/dac.h ****     /** Sets the number of bits per sample transmitted out of the DAC.
  53:../../DaisyExamples/libDaisy//src/per/dac.h ****      ** The output range will be: 0V - VDDA
  54:../../DaisyExamples/libDaisy//src/per/dac.h ****      ** The resolution will be roughly: bitdepth / (VDDA - 0V) 
  55:../../DaisyExamples/libDaisy//src/per/dac.h ****      ***/
  56:../../DaisyExamples/libDaisy//src/per/dac.h ****     enum class BitDepth
  57:../../DaisyExamples/libDaisy//src/per/dac.h ****     {
  58:../../DaisyExamples/libDaisy//src/per/dac.h ****         BITS_8,
  59:../../DaisyExamples/libDaisy//src/per/dac.h ****         BITS_12
  60:../../DaisyExamples/libDaisy//src/per/dac.h ****     };
  61:../../DaisyExamples/libDaisy//src/per/dac.h **** 
  62:../../DaisyExamples/libDaisy//src/per/dac.h ****     /** Sets whether the DAC output is buffered for higher drive ability. */
  63:../../DaisyExamples/libDaisy//src/per/dac.h ****     enum class BufferState
ARM GAS  /tmp/ccD6FYWN.s 			page 25


  64:../../DaisyExamples/libDaisy//src/per/dac.h ****     {
  65:../../DaisyExamples/libDaisy//src/per/dac.h ****         ENABLED,
  66:../../DaisyExamples/libDaisy//src/per/dac.h ****         DISABLED,
  67:../../DaisyExamples/libDaisy//src/per/dac.h ****     };
  68:../../DaisyExamples/libDaisy//src/per/dac.h **** 
  69:../../DaisyExamples/libDaisy//src/per/dac.h ****     /** Configuration structure for initializing the DAC structure. */
  70:../../DaisyExamples/libDaisy//src/per/dac.h ****     struct Config
  71:../../DaisyExamples/libDaisy//src/per/dac.h ****     {
  72:../../DaisyExamples/libDaisy//src/per/dac.h ****         /** Target Samplerate in Hz used to configure the internal 
  73:../../DaisyExamples/libDaisy//src/per/dac.h ****          ** timebase for DMA mode. Does nothing in POLLING mode.
  74:../../DaisyExamples/libDaisy//src/per/dac.h ****          ** If the value is 0 at Init time this will default to 48000Hz 
  75:../../DaisyExamples/libDaisy//src/per/dac.h ****          ** otherwise the driver will attempt meet the target.*/
  76:../../DaisyExamples/libDaisy//src/per/dac.h ****         uint32_t target_samplerate;
  77:../../DaisyExamples/libDaisy//src/per/dac.h **** 
  78:../../DaisyExamples/libDaisy//src/per/dac.h ****         Channel     chn;
  79:../../DaisyExamples/libDaisy//src/per/dac.h ****         Mode        mode;
  80:../../DaisyExamples/libDaisy//src/per/dac.h ****         BitDepth    bitdepth;
  81:../../DaisyExamples/libDaisy//src/per/dac.h ****         BufferState buff_state;
  82:../../DaisyExamples/libDaisy//src/per/dac.h ****     };
  83:../../DaisyExamples/libDaisy//src/per/dac.h **** 
  84:../../DaisyExamples/libDaisy//src/per/dac.h ****     DacHandle() : pimpl_(nullptr) {}
 567              		.loc 8 84 5 is_stmt 1 view .LVU161
 568              	.LBB115:
 569              	.LBB116:
 570              		.loc 8 84 19 is_stmt 0 view .LVU162
 571 000c 0362     		str	r3, [r0, #32]
 572              	.LVL36:
 573              		.loc 8 84 19 view .LVU163
 574              	.LBE116:
 575              	.LBE115:
 576              	.LBE114:
 577              	.LBB117:
 578              	.LBI117:
  40:../../DaisyExamples/libDaisy//src/hid/usb.h **** 
 579              		.loc 4 40 5 is_stmt 1 view .LVU164
  40:../../DaisyExamples/libDaisy//src/hid/usb.h **** 
 580              		.loc 4 40 5 is_stmt 0 view .LVU165
 581              	.LBE117:
 582              	.LBB118:
 583              	.LBI118:
  77:../../DaisyExamples/libDaisy//src/sys/system.h ****     ~System() {}
 584              		.loc 3 77 5 is_stmt 1 view .LVU166
  77:../../DaisyExamples/libDaisy//src/sys/system.h ****     ~System() {}
 585              		.loc 3 77 5 is_stmt 0 view .LVU167
 586              	.LBE118:
 587              	.LBE119:
 588              	.LBE120:
  13:run.cpp       **** static size_t value_count = 0;
 589              		.loc 1 13 11 discriminator 1 view .LVU168
 590 000e FFF7FEBF 		b	__aeabi_atexit
 591              	.LVL37:
 592              	.L23:
 593 0012 00BF     		.align	2
 594              	.L22:
 595 0014 00000000 		.word	hw
 596 0018 00000000 		.word	__dso_handle
 597 001c 00000000 		.word	_ZN5daisy9DaisySeedD1Ev
ARM GAS  /tmp/ccD6FYWN.s 			page 26


 598              	.LBE101:
 599              	.LBE100:
 600              		.cfi_endproc
 601              	.LFE5374:
 603              		.section	.init_array,"aw",%init_array
 604              		.align	2
 605 0000 00000000 		.word	_GLOBAL__sub_I_hw(target1)
 606              		.section	.bss._ZL11value_count,"aw",%nobits
 607              		.align	2
 610              	_ZL11value_count:
 611 0000 00000000 		.space	4
 612              		.global	hw
 613              		.section	.bss.hw,"aw",%nobits
 614              		.align	2
 617              	hw:
 618 0000 00000000 		.space	60
 618      00000000 
 618      00000000 
 618      00000000 
 618      00000000 
 619              		.text
 620              	.Letext0:
 621              		.file 9 "/usr/arm-none-eabi/include/machine/_default_types.h"
 622              		.file 10 "/usr/arm-none-eabi/include/sys/_stdint.h"
 623              		.file 11 "/usr/arm-none-eabi/include/stdint.h"
 624              		.file 12 "/usr/lib/gcc/arm-none-eabi/13.2.0/include/stddef.h"
 625              		.file 13 "/usr/arm-none-eabi/include/c++/13.2.0/cmath"
 626              		.file 14 "/usr/arm-none-eabi/include/c++/13.2.0/bits/std_abs.h"
 627              		.file 15 "/usr/arm-none-eabi/include/c++/13.2.0/type_traits"
 628              		.file 16 "/usr/arm-none-eabi/include/c++/13.2.0/cstdlib"
 629              		.file 17 "/usr/arm-none-eabi/include/c++/13.2.0/cstdint"
 630              		.file 18 "/usr/arm-none-eabi/include/c++/13.2.0/bits/stl_pair.h"
 631              		.file 19 "/usr/arm-none-eabi/include/c++/13.2.0/debug/debug.h"
 632              		.file 20 "/usr/arm-none-eabi/include/c++/13.2.0/cstdarg"
 633              		.file 21 "/usr/arm-none-eabi/include/c++/13.2.0/cstdio"
 634              		.file 22 "/usr/arm-none-eabi/include/c++/13.2.0/cstring"
 635              		.file 23 "/usr/arm-none-eabi/include/c++/13.2.0/cwchar"
 636              		.file 24 "/usr/arm-none-eabi/include/c++/13.2.0/clocale"
 637              		.file 25 "/usr/arm-none-eabi/include/c++/13.2.0/bits/charconv.h"
 638              		.file 26 "/usr/arm-none-eabi/include/c++/13.2.0/bits/predefined_ops.h"
 639              		.file 27 "/usr/arm-none-eabi/include/sys/_types.h"
 640              		.file 28 "/usr/arm-none-eabi/include/sys/reent.h"
 641              		.file 29 "/usr/arm-none-eabi/include/sys/lock.h"
 642              		.file 30 "/usr/arm-none-eabi/include/math.h"
 643              		.file 31 "/usr/arm-none-eabi/include/stdlib.h"
 644              		.file 32 "/usr/arm-none-eabi/include/c++/13.2.0/math.h"
 645              		.file 33 "/usr/arm-none-eabi/include/c++/13.2.0/arm-none-eabi/thumb/v7e-m+dp/hard/bits/c++config.h
 646              		.file 34 "/usr/arm-none-eabi/include/c++/13.2.0/pstl/execution_defs.h"
 647              		.file 35 "/usr/arm-none-eabi/include/c++/13.2.0/stdlib.h"
 648              		.file 36 "../../DaisyExamples/libDaisy//src/daisy_core.h"
 649              		.file 37 "../../DaisyExamples/libDaisy//src/per/sai.h"
 650              		.file 38 "../../DaisyExamples/libDaisy//src/hid/logger_impl.h"
 651              		.file 39 "../../DaisyExamples/libDaisy//src/util/wav_format.h"
 652              		.file 40 "../../DaisyExamples/libDaisy//src/dev/max11300.h"
 653              		.file 41 "../../DaisyExamples/libDaisy//src/hid/logger.h"
 654              		.file 42 "../../DaisyExamples/libDaisy//src/per/gpio.h"
 655              		.file 43 "../../DaisyExamples/libDaisy//src/dev/sdram.h"
ARM GAS  /tmp/ccD6FYWN.s 			page 27


 656              		.file 44 "/usr/lib/gcc/arm-none-eabi/13.2.0/include/stdarg.h"
 657              		.file 45 "/usr/arm-none-eabi/include/stdio.h"
 658              		.file 46 "/usr/arm-none-eabi/include/string.h"
 659              		.file 47 "../../DaisyExamples/DaisySP//Source/Control/adenv.h"
 660              		.file 48 "../../DaisyExamples/DaisySP//Source/Utility/dsp.h"
 661              		.file 49 "/usr/arm-none-eabi/include/wchar.h"
 662              		.file 50 "/usr/arm-none-eabi/include/locale.h"
 663              		.file 51 "../../DaisyExamples/libDaisy//src/dev/sr_595.h"
 664              		.file 52 "<built-in>"
ARM GAS  /tmp/ccD6FYWN.s 			page 28

